; Listing generated by Microsoft (R) Optimizing Compiler Version 19.23.28106.4 

	TITLE	C:\Users\R2\Desktop\yoda\learning_myself\c_c++\Visual_c++\c++_Primer_book\src\Main35.cpp
	.686P
	.XMM
	include listing.inc
	.model	flat

INCLUDELIB MSVCRTD
INCLUDELIB OLDNAMES

msvcjmc	SEGMENT
__0A074437_vcruntime_new@h DB 01H
__09340588_corecrt_math@h DB 01H
__24E9E95F_stdlib@h DB 01H
__86D65F0C_cstdlib DB 01H
__F66CEB67_corecrt_stdio_config@h DB 01H
__101834BA_corecrt_wstdio@h DB 01H
__AD6A91B7_stdio@h DB 01H
__367CC694_corecrt_memcpy_s@h DB 01H
__5467428D_corecrt_wconio@h DB 01H
__4442441F_corecrt_wio@h DB 01H
__DC9673E3_corecrt_wstring@h DB 01H
__45F4AF76_corecrt_wtime@h DB 01H
__186FF47F_stat@h DB 01H
__534C724A_wchar@h DB 01H
__843B0F21_limits DB 01H
__FFC6471F_type_traits DB 01H
__B0C4CEA9_malloc@h DB 01H
__69245D52_vcruntime_exception@h DB 01H
__536DB091_exception DB 01H
__35D7DDB3_corecrt_memory@h DB 01H
__A29A7DFB_string@h DB 01H
__86E03ACD_xutility DB 01H
__DB4EB944_xmemory DB 01H
__B9A1F245_algorithm DB 01H
__6A0B36D1_cmath DB 01H
__AF9D3FD8_xstring DB 01H
__DA238ACC_stdexcept DB 01H
__65AE1ACD_xcall_once@h DB 01H
__DAF308ED_system_error DB 01H
__36900320_vcruntime_typeinfo@h DB 01H
__F63FC9D4_typeinfo DB 01H
__389503AF_memory DB 01H
__14D054A0_xfacet DB 01H
__7242C389_ctype@h DB 01H
__E9B62A1C_xlocinfo DB 01H
__70A34BE9_xlocale DB 01H
__D0535D0F_xiosbase DB 01H
__EE242DFE_xlocnum DB 01H
__D17CECDD_ios DB 01H
__CC282F90_tuple DB 01H
__F648D1BC_Main35@cpp DB 01H
__0063A417_istream DB 01H
__63B3912D_ostream DB 01H
__D8833270_streambuf DB 01H
__48D2DAA7_iosfwd DB 01H
__B1DBDA87_utility DB 01H
__46C44D95_xstddef DB 01H
__59613C47_xatomic@h DB 01H
msvcjmc	ENDS
PUBLIC	?__empty_global_delete@@YAXPAX@Z		; __empty_global_delete
PUBLIC	?__empty_global_delete@@YAXPAXI@Z		; __empty_global_delete
PUBLIC	?foo@@YAHH@Z					; foo
PUBLIC	_main
PUBLIC	__JustMyCode_Default
EXTRN	@_RTC_CheckStackVars@8:PROC
EXTRN	@__CheckForDebuggerJustMyCode@4:PROC
EXTRN	__RTC_CheckEsp:PROC
EXTRN	__RTC_InitBase:PROC
EXTRN	__RTC_Shutdown:PROC
;	COMDAT rtc$TMZ
rtc$TMZ	SEGMENT
__RTC_Shutdown.rtc$TMZ DD FLAT:__RTC_Shutdown
rtc$TMZ	ENDS
;	COMDAT rtc$IMZ
rtc$IMZ	SEGMENT
__RTC_InitBase.rtc$IMZ DD FLAT:__RTC_InitBase
rtc$IMZ	ENDS
; Function compile flags: /Odt
;	COMDAT __JustMyCode_Default
_TEXT	SEGMENT
__JustMyCode_Default PROC				; COMDAT
  00000	55		 push	 ebp
  00001	8b ec		 mov	 ebp, esp
  00003	5d		 pop	 ebp
  00004	c3		 ret	 0
__JustMyCode_Default ENDP
_TEXT	ENDS
; Function compile flags: /Odtp /RTCsu /ZI
; File C:\Users\R2\Desktop\yoda\learning_myself\c_c++\Visual_c++\c++_Primer_book\src\Main35.cpp
;	COMDAT _main
_TEXT	SEGMENT
_i$ = -8						; size = 4
_main	PROC						; COMDAT

; 11   : {

  00000	55		 push	 ebp
  00001	8b ec		 mov	 ebp, esp
  00003	81 ec fc 00 00
	00		 sub	 esp, 252		; 000000fcH
  00009	53		 push	 ebx
  0000a	56		 push	 esi
  0000b	57		 push	 edi
  0000c	8d bd 04 ff ff
	ff		 lea	 edi, DWORD PTR [ebp-252]
  00012	b9 3f 00 00 00	 mov	 ecx, 63			; 0000003fH
  00017	b8 cc cc cc cc	 mov	 eax, -858993460		; ccccccccH
  0001c	f3 ab		 rep stosd
  0001e	b9 00 00 00 00	 mov	 ecx, OFFSET __F648D1BC_Main35@cpp
  00023	e8 00 00 00 00	 call	 @__CheckForDebuggerJustMyCode@4

; 12   : 	int i = 10;

  00028	c7 45 f8 0a 00
	00 00		 mov	 DWORD PTR _i$[ebp], 10	; 0000000aH

; 13   : 	std::array<int, foo(5)> arr; // OK
; 14   : 
; 15   : 	foo(i); // Call is Ok

  0002f	8b 45 f8	 mov	 eax, DWORD PTR _i$[ebp]
  00032	50		 push	 eax
  00033	e8 00 00 00 00	 call	 ?foo@@YAHH@Z		; foo
  00038	83 c4 04	 add	 esp, 4

; 16   : 
; 17   : 	// But...
; 18   : 	//std::array<int, foo(i)> arr1; // Error
; 19   : 
; 20   : }

  0003b	33 c0		 xor	 eax, eax
  0003d	52		 push	 edx
  0003e	8b cd		 mov	 ecx, ebp
  00040	50		 push	 eax
  00041	8d 15 00 00 00
	00		 lea	 edx, DWORD PTR $LN5@main
  00047	e8 00 00 00 00	 call	 @_RTC_CheckStackVars@8
  0004c	58		 pop	 eax
  0004d	5a		 pop	 edx
  0004e	5f		 pop	 edi
  0004f	5e		 pop	 esi
  00050	5b		 pop	 ebx
  00051	81 c4 fc 00 00
	00		 add	 esp, 252		; 000000fcH
  00057	3b ec		 cmp	 ebp, esp
  00059	e8 00 00 00 00	 call	 __RTC_CheckEsp
  0005e	8b e5		 mov	 esp, ebp
  00060	5d		 pop	 ebp
  00061	c3		 ret	 0
  00062	66 90		 npad	 2
$LN5@main:
  00064	01 00 00 00	 DD	 1
  00068	00 00 00 00	 DD	 $LN4@main
$LN4@main:
  0006c	c8 ff ff ff	 DD	 -56			; ffffffc8H
  00070	28 00 00 00	 DD	 40			; 00000028H
  00074	00 00 00 00	 DD	 $LN3@main
$LN3@main:
  00078	61		 DB	 97			; 00000061H
  00079	72		 DB	 114			; 00000072H
  0007a	72		 DB	 114			; 00000072H
  0007b	00		 DB	 0
_main	ENDP
_TEXT	ENDS
; Function compile flags: /Odtp /RTCsu /ZI
; File C:\Users\R2\Desktop\yoda\learning_myself\c_c++\Visual_c++\c++_Primer_book\src\Main35.cpp
;	COMDAT ?foo@@YAHH@Z
_TEXT	SEGMENT
_i$ = 8							; size = 4
?foo@@YAHH@Z PROC					; foo, COMDAT

; 6    : {

  00000	55		 push	 ebp
  00001	8b ec		 mov	 ebp, esp
  00003	81 ec c0 00 00
	00		 sub	 esp, 192		; 000000c0H
  00009	53		 push	 ebx
  0000a	56		 push	 esi
  0000b	57		 push	 edi
  0000c	8d bd 40 ff ff
	ff		 lea	 edi, DWORD PTR [ebp-192]
  00012	b9 30 00 00 00	 mov	 ecx, 48			; 00000030H
  00017	b8 cc cc cc cc	 mov	 eax, -858993460		; ccccccccH
  0001c	f3 ab		 rep stosd
  0001e	b9 00 00 00 00	 mov	 ecx, OFFSET __F648D1BC_Main35@cpp
  00023	e8 00 00 00 00	 call	 @__CheckForDebuggerJustMyCode@4

; 7    : 	return i + 5;

  00028	8b 45 08	 mov	 eax, DWORD PTR _i$[ebp]
  0002b	83 c0 05	 add	 eax, 5

; 8    : }

  0002e	5f		 pop	 edi
  0002f	5e		 pop	 esi
  00030	5b		 pop	 ebx
  00031	81 c4 c0 00 00
	00		 add	 esp, 192		; 000000c0H
  00037	3b ec		 cmp	 ebp, esp
  00039	e8 00 00 00 00	 call	 __RTC_CheckEsp
  0003e	8b e5		 mov	 esp, ebp
  00040	5d		 pop	 ebp
  00041	c3		 ret	 0
?foo@@YAHH@Z ENDP					; foo
_TEXT	ENDS
; Function compile flags: /Odtp /RTCsu /ZI
; File C:\Users\R2\Desktop\yoda\learning_myself\c_c++\Visual_c++\c++_Primer_book\src\Main35.cpp
;	COMDAT ?__empty_global_delete@@YAXPAXI@Z
_TEXT	SEGMENT
___formal$ = 8						; size = 4
___formal$ = 12						; size = 4
?__empty_global_delete@@YAXPAXI@Z PROC			; __empty_global_delete, COMDAT

  00000	55		 push	 ebp
  00001	8b ec		 mov	 ebp, esp
  00003	81 ec c0 00 00
	00		 sub	 esp, 192		; 000000c0H
  00009	53		 push	 ebx
  0000a	56		 push	 esi
  0000b	57		 push	 edi
  0000c	8d bd 40 ff ff
	ff		 lea	 edi, DWORD PTR [ebp-192]
  00012	b9 30 00 00 00	 mov	 ecx, 48			; 00000030H
  00017	b8 cc cc cc cc	 mov	 eax, -858993460		; ccccccccH
  0001c	f3 ab		 rep stosd
  0001e	b9 00 00 00 00	 mov	 ecx, OFFSET __F648D1BC_Main35@cpp
  00023	e8 00 00 00 00	 call	 @__CheckForDebuggerJustMyCode@4
  00028	5f		 pop	 edi
  00029	5e		 pop	 esi
  0002a	5b		 pop	 ebx
  0002b	81 c4 c0 00 00
	00		 add	 esp, 192		; 000000c0H
  00031	3b ec		 cmp	 ebp, esp
  00033	e8 00 00 00 00	 call	 __RTC_CheckEsp
  00038	8b e5		 mov	 esp, ebp
  0003a	5d		 pop	 ebp
  0003b	c3		 ret	 0
?__empty_global_delete@@YAXPAXI@Z ENDP			; __empty_global_delete
_TEXT	ENDS
; Function compile flags: /Odtp /RTCsu /ZI
; File C:\Users\R2\Desktop\yoda\learning_myself\c_c++\Visual_c++\c++_Primer_book\src\Main35.cpp
;	COMDAT ?__empty_global_delete@@YAXPAX@Z
_TEXT	SEGMENT
___formal$ = 8						; size = 4
?__empty_global_delete@@YAXPAX@Z PROC			; __empty_global_delete, COMDAT

  00000	55		 push	 ebp
  00001	8b ec		 mov	 ebp, esp
  00003	81 ec c0 00 00
	00		 sub	 esp, 192		; 000000c0H
  00009	53		 push	 ebx
  0000a	56		 push	 esi
  0000b	57		 push	 edi
  0000c	8d bd 40 ff ff
	ff		 lea	 edi, DWORD PTR [ebp-192]
  00012	b9 30 00 00 00	 mov	 ecx, 48			; 00000030H
  00017	b8 cc cc cc cc	 mov	 eax, -858993460		; ccccccccH
  0001c	f3 ab		 rep stosd
  0001e	b9 00 00 00 00	 mov	 ecx, OFFSET __F648D1BC_Main35@cpp
  00023	e8 00 00 00 00	 call	 @__CheckForDebuggerJustMyCode@4
  00028	5f		 pop	 edi
  00029	5e		 pop	 esi
  0002a	5b		 pop	 ebx
  0002b	81 c4 c0 00 00
	00		 add	 esp, 192		; 000000c0H
  00031	3b ec		 cmp	 ebp, esp
  00033	e8 00 00 00 00	 call	 __RTC_CheckEsp
  00038	8b e5		 mov	 esp, ebp
  0003a	5d		 pop	 ebp
  0003b	c3		 ret	 0
?__empty_global_delete@@YAXPAX@Z ENDP			; __empty_global_delete
_TEXT	ENDS
END
