; Listing generated by Microsoft (R) Optimizing Compiler Version 19.23.28106.4 

	TITLE	C:\Users\R2\Desktop\yoda\learning_myself\c_c++\Visual_c++\c++_Primer_book\src\Main27.cpp
	.686P
	.XMM
	include listing.inc
	.model	flat

INCLUDELIB MSVCRTD
INCLUDELIB OLDNAMES

msvcjmc	SEGMENT
__0A074437_vcruntime_new@h DB 01H
__09340588_corecrt_math@h DB 01H
__24E9E95F_stdlib@h DB 01H
__86D65F0C_cstdlib DB 01H
__6A0B36D1_cmath DB 01H
__F66CEB67_corecrt_stdio_config@h DB 01H
__101834BA_corecrt_wstdio@h DB 01H
__AD6A91B7_stdio@h DB 01H
__FFC6471F_type_traits DB 01H
__B0C4CEA9_malloc@h DB 01H
__69245D52_vcruntime_exception@h DB 01H
__536DB091_exception DB 01H
__367CC694_corecrt_memcpy_s@h DB 01H
__35D7DDB3_corecrt_memory@h DB 01H
__DC9673E3_corecrt_wstring@h DB 01H
__A29A7DFB_string@h DB 01H
__5467428D_corecrt_wconio@h DB 01H
__4442441F_corecrt_wio@h DB 01H
__45F4AF76_corecrt_wtime@h DB 01H
__186FF47F_stat@h DB 01H
__534C724A_wchar@h DB 01H
__843B0F21_limits DB 01H
__86E03ACD_xutility DB 01H
__DB4EB944_xmemory DB 01H
__AF9D3FD8_xstring DB 01H
__DA238ACC_stdexcept DB 01H
__65AE1ACD_xcall_once@h DB 01H
__DAF308ED_system_error DB 01H
__36900320_vcruntime_typeinfo@h DB 01H
__F63FC9D4_typeinfo DB 01H
__389503AF_memory DB 01H
__14D054A0_xfacet DB 01H
__7242C389_ctype@h DB 01H
__E9B62A1C_xlocinfo DB 01H
__70A34BE9_xlocale DB 01H
__D0535D0F_xiosbase DB 01H
__EE242DFE_xlocnum DB 01H
__D17CECDD_ios DB 01H
__47D45179_Main27@cpp DB 01H
__0063A417_istream DB 01H
__63B3912D_ostream DB 01H
__D8833270_streambuf DB 01H
__48D2DAA7_iosfwd DB 01H
__B1DBDA87_utility DB 01H
__46C44D95_xstddef DB 01H
__59613C47_xatomic@h DB 01H
msvcjmc	ENDS
PUBLIC	?__empty_global_delete@@YAXPAX@Z		; __empty_global_delete
PUBLIC	?__empty_global_delete@@YAXPAXI@Z		; __empty_global_delete
PUBLIC	??2@YAPAXIPAX@Z					; operator new
PUBLIC	??0exception@std@@QAE@QBDH@Z			; std::exception::exception
PUBLIC	??0exception@std@@QAE@ABV01@@Z			; std::exception::exception
PUBLIC	??1exception@std@@UAE@XZ			; std::exception::~exception
PUBLIC	?what@exception@std@@UBEPBDXZ			; std::exception::what
PUBLIC	??_Gexception@std@@UAEPAXI@Z			; std::exception::`scalar deleting destructor'
PUBLIC	??0bad_alloc@std@@AAE@QBD@Z			; std::bad_alloc::bad_alloc
PUBLIC	??1bad_alloc@std@@UAE@XZ			; std::bad_alloc::~bad_alloc
PUBLIC	??0bad_alloc@std@@QAE@ABV01@@Z			; std::bad_alloc::bad_alloc
PUBLIC	??_Gbad_alloc@std@@UAEPAXI@Z			; std::bad_alloc::`scalar deleting destructor'
PUBLIC	??0bad_array_new_length@std@@QAE@XZ		; std::bad_array_new_length::bad_array_new_length
PUBLIC	??1bad_array_new_length@std@@UAE@XZ		; std::bad_array_new_length::~bad_array_new_length
PUBLIC	??0bad_array_new_length@std@@QAE@ABV01@@Z	; std::bad_array_new_length::bad_array_new_length
PUBLIC	??_Gbad_array_new_length@std@@UAEPAXI@Z		; std::bad_array_new_length::`scalar deleting destructor'
PUBLIC	?_Throw_bad_array_new_length@std@@YAXXZ		; std::_Throw_bad_array_new_length
PUBLIC	?max@?$numeric_limits@H@std@@SAHXZ		; std::numeric_limits<int>::max
PUBLIC	?_Allocate@_Default_allocate_traits@std@@SAPAXI@Z ; std::_Default_allocate_traits::_Allocate
PUBLIC	?_Adjust_manually_vector_aligned@std@@YAXAAPAXAAI@Z ; std::_Adjust_manually_vector_aligned
PUBLIC	??$_Convert_size@I@std@@YAII@Z			; std::_Convert_size<unsigned int>
PUBLIC	??0_Container_proxy@std@@QAE@PAU_Container_base12@1@@Z ; std::_Container_proxy::_Container_proxy
PUBLIC	??0_Container_base12@std@@QAE@XZ		; std::_Container_base12::_Container_base12
PUBLIC	?_Orphan_all@_Container_base12@std@@QAEXXZ	; std::_Container_base12::_Orphan_all
PUBLIC	?_Swap_proxy_and_iterators@_Container_base12@std@@QAEXAAU12@@Z ; std::_Container_base12::_Swap_proxy_and_iterators
PUBLIC	??$_Construct_in_place@U_Container_proxy@std@@PAU_Container_base12@2@@std@@YAXAAU_Container_proxy@0@$$QAPAU_Container_base12@0@@Z ; std::_Construct_in_place<std::_Container_proxy,std::_Container_base12 *>
PUBLIC	?_Release@_Basic_container_proxy_ptr12@std@@QAEXXZ ; std::_Basic_container_proxy_ptr12::_Release
PUBLIC	??$addressof@U_Container_base12@std@@@std@@YAPAU_Container_base12@0@AAU10@@Z ; std::addressof<std::_Container_base12>
PUBLIC	?length@?$_Narrow_char_traits@DH@std@@SAIQBD@Z	; std::_Narrow_char_traits<char,int>::length
PUBLIC	?copy@?$_Narrow_char_traits@DH@std@@SAPADQADQBDI@Z ; std::_Narrow_char_traits<char,int>::copy
PUBLIC	?move@?$_Narrow_char_traits@DH@std@@SAPADQADQBDI@Z ; std::_Narrow_char_traits<char,int>::move
PUBLIC	?assign@?$_Narrow_char_traits@DH@std@@SAXAADABD@Z ; std::_Narrow_char_traits<char,int>::assign
PUBLIC	?eq_int_type@?$_Narrow_char_traits@DH@std@@SA_NABH0@Z ; std::_Narrow_char_traits<char,int>::eq_int_type
PUBLIC	?eof@?$_Narrow_char_traits@DH@std@@SAHXZ	; std::_Narrow_char_traits<char,int>::eof
PUBLIC	??$_Min_value@I@std@@YAABIABI0@Z		; std::_Min_value<unsigned int>
PUBLIC	??0?$allocator@D@std@@QAE@XZ			; std::allocator<char>::allocator<char>
PUBLIC	?deallocate@?$allocator@D@std@@QAEXQADI@Z	; std::allocator<char>::deallocate
PUBLIC	?allocate@?$allocator@D@std@@QAEPADI@Z		; std::allocator<char>::allocate
PUBLIC	?max_size@?$_Default_allocator_traits@V?$allocator@D@std@@@std@@SAIABV?$allocator@D@2@@Z ; std::_Default_allocator_traits<std::allocator<char> >::max_size
PUBLIC	??0?$_String_val@U?$_Simple_types@D@std@@@std@@QAE@XZ ; std::_String_val<std::_Simple_types<char> >::_String_val<std::_Simple_types<char> >
PUBLIC	?_Myptr@?$_String_val@U?$_Simple_types@D@std@@@std@@QAEPADXZ ; std::_String_val<std::_Simple_types<char> >::_Myptr
PUBLIC	?_Myptr@?$_String_val@U?$_Simple_types@D@std@@@std@@QBEPBDXZ ; std::_String_val<std::_Simple_types<char> >::_Myptr
PUBLIC	?_Large_string_engaged@?$_String_val@U?$_Simple_types@D@std@@@std@@QBE_NXZ ; std::_String_val<std::_Simple_types<char> >::_Large_string_engaged
PUBLIC	??0_Bxty@?$_String_val@U?$_Simple_types@D@std@@@std@@QAE@XZ ; std::_String_val<std::_Simple_types<char> >::_Bxty::_Bxty
PUBLIC	??1_Bxty@?$_String_val@U?$_Simple_types@D@std@@@std@@QAE@XZ ; std::_String_val<std::_Simple_types<char> >::_Bxty::~_Bxty
PUBLIC	??1?$_String_val@U?$_Simple_types@D@std@@@std@@QAE@XZ ; std::_String_val<std::_Simple_types<char> >::~_String_val<std::_Simple_types<char> >
PUBLIC	??0?$basic_string@DU?$char_traits@D@std@@V?$allocator@D@2@@std@@QAE@XZ ; std::basic_string<char,std::char_traits<char>,std::allocator<char> >::basic_string<char,std::char_traits<char>,std::allocator<char> >
PUBLIC	??0?$basic_string@DU?$char_traits@D@std@@V?$allocator@D@2@@std@@QAE@QBD@Z ; std::basic_string<char,std::char_traits<char>,std::allocator<char> >::basic_string<char,std::char_traits<char>,std::allocator<char> >
PUBLIC	??0?$basic_string@DU?$char_traits@D@std@@V?$allocator@D@2@@std@@QAE@$$QAV01@@Z ; std::basic_string<char,std::char_traits<char>,std::allocator<char> >::basic_string<char,std::char_traits<char>,std::allocator<char> >
PUBLIC	?_Memcpy_val_from@?$basic_string@DU?$char_traits@D@std@@V?$allocator@D@2@@std@@AAEXABV12@@Z ; std::basic_string<char,std::char_traits<char>,std::allocator<char> >::_Memcpy_val_from
PUBLIC	?_Take_contents@?$basic_string@DU?$char_traits@D@std@@V?$allocator@D@2@@std@@AAEXAAV12@U?$integral_constant@_N$00@2@@Z ; std::basic_string<char,std::char_traits<char>,std::allocator<char> >::_Take_contents
PUBLIC	??1?$basic_string@DU?$char_traits@D@std@@V?$allocator@D@2@@std@@QAE@XZ ; std::basic_string<char,std::char_traits<char>,std::allocator<char> >::~basic_string<char,std::char_traits<char>,std::allocator<char> >
PUBLIC	??Y?$basic_string@DU?$char_traits@D@std@@V?$allocator@D@2@@std@@QAEAAV01@ABV01@@Z ; std::basic_string<char,std::char_traits<char>,std::allocator<char> >::operator+=
PUBLIC	??Y?$basic_string@DU?$char_traits@D@std@@V?$allocator@D@2@@std@@QAEAAV01@QBD@Z ; std::basic_string<char,std::char_traits<char>,std::allocator<char> >::operator+=
PUBLIC	?append@?$basic_string@DU?$char_traits@D@std@@V?$allocator@D@2@@std@@QAEAAV12@ABV12@@Z ; std::basic_string<char,std::char_traits<char>,std::allocator<char> >::append
PUBLIC	?append@?$basic_string@DU?$char_traits@D@std@@V?$allocator@D@2@@std@@QAEAAV12@QBDI@Z ; std::basic_string<char,std::char_traits<char>,std::allocator<char> >::append
PUBLIC	?append@?$basic_string@DU?$char_traits@D@std@@V?$allocator@D@2@@std@@QAEAAV12@QBD@Z ; std::basic_string<char,std::char_traits<char>,std::allocator<char> >::append
PUBLIC	?assign@?$basic_string@DU?$char_traits@D@std@@V?$allocator@D@2@@std@@QAEAAV12@QBDI@Z ; std::basic_string<char,std::char_traits<char>,std::allocator<char> >::assign
PUBLIC	?assign@?$basic_string@DU?$char_traits@D@std@@V?$allocator@D@2@@std@@QAEAAV12@QBD@Z ; std::basic_string<char,std::char_traits<char>,std::allocator<char> >::assign
PUBLIC	?data@?$basic_string@DU?$char_traits@D@std@@V?$allocator@D@2@@std@@QBEPBDXZ ; std::basic_string<char,std::char_traits<char>,std::allocator<char> >::data
PUBLIC	?size@?$basic_string@DU?$char_traits@D@std@@V?$allocator@D@2@@std@@QBEIXZ ; std::basic_string<char,std::char_traits<char>,std::allocator<char> >::size
PUBLIC	?max_size@?$basic_string@DU?$char_traits@D@std@@V?$allocator@D@2@@std@@QBEIXZ ; std::basic_string<char,std::char_traits<char>,std::allocator<char> >::max_size
PUBLIC	?reserve@?$basic_string@DU?$char_traits@D@std@@V?$allocator@D@2@@std@@QAEXI@Z ; std::basic_string<char,std::char_traits<char>,std::allocator<char> >::reserve
PUBLIC	?_Calculate_growth@?$basic_string@DU?$char_traits@D@std@@V?$allocator@D@2@@std@@CAIIII@Z ; std::basic_string<char,std::char_traits<char>,std::allocator<char> >::_Calculate_growth
PUBLIC	?_Calculate_growth@?$basic_string@DU?$char_traits@D@std@@V?$allocator@D@2@@std@@ABEII@Z ; std::basic_string<char,std::char_traits<char>,std::allocator<char> >::_Calculate_growth
PUBLIC	?_Become_small@?$basic_string@DU?$char_traits@D@std@@V?$allocator@D@2@@std@@AAEXXZ ; std::basic_string<char,std::char_traits<char>,std::allocator<char> >::_Become_small
PUBLIC	?_Tidy_init@?$basic_string@DU?$char_traits@D@std@@V?$allocator@D@2@@std@@AAEXXZ ; std::basic_string<char,std::char_traits<char>,std::allocator<char> >::_Tidy_init
PUBLIC	?_Tidy_deallocate@?$basic_string@DU?$char_traits@D@std@@V?$allocator@D@2@@std@@AAEXXZ ; std::basic_string<char,std::char_traits<char>,std::allocator<char> >::_Tidy_deallocate
PUBLIC	?_Xlen@?$basic_string@DU?$char_traits@D@std@@V?$allocator@D@2@@std@@CAXXZ ; std::basic_string<char,std::char_traits<char>,std::allocator<char> >::_Xlen
PUBLIC	?_Swap_proxy_and_iterators@?$basic_string@DU?$char_traits@D@std@@V?$allocator@D@2@@std@@AAEXAAV12@@Z ; std::basic_string<char,std::char_traits<char>,std::allocator<char> >::_Swap_proxy_and_iterators
PUBLIC	?_Getal@?$basic_string@DU?$char_traits@D@std@@V?$allocator@D@2@@std@@AAEAAV?$allocator@D@2@XZ ; std::basic_string<char,std::char_traits<char>,std::allocator<char> >::_Getal
PUBLIC	?_Getal@?$basic_string@DU?$char_traits@D@std@@V?$allocator@D@2@@std@@ABEABV?$allocator@D@2@XZ ; std::basic_string<char,std::char_traits<char>,std::allocator<char> >::_Getal
PUBLIC	?_Get_first@?$_Compressed_pair@V?$allocator@D@std@@V?$_String_val@U?$_Simple_types@D@std@@@2@$00@std@@QAEAAV?$allocator@D@2@XZ ; std::_Compressed_pair<std::allocator<char>,std::_String_val<std::_Simple_types<char> >,1>::_Get_first
PUBLIC	?_Get_first@?$_Compressed_pair@V?$allocator@D@std@@V?$_String_val@U?$_Simple_types@D@std@@@2@$00@std@@QBEABV?$allocator@D@2@XZ ; std::_Compressed_pair<std::allocator<char>,std::_String_val<std::_Simple_types<char> >,1>::_Get_first
PUBLIC	??1?$_Compressed_pair@V?$allocator@D@std@@V?$_String_val@U?$_Simple_types@D@std@@@2@$00@std@@QAE@XZ ; std::_Compressed_pair<std::allocator<char>,std::_String_val<std::_Simple_types<char> >,1>::~_Compressed_pair<std::allocator<char>,std::_String_val<std::_Simple_types<char> >,1>
PUBLIC	_main
PUBLIC	??$?HDU?$char_traits@D@std@@V?$allocator@D@1@@std@@YA?AV?$basic_string@DU?$char_traits@D@std@@V?$allocator@D@2@@0@ABV10@QBD@Z ; std::operator+<char,std::char_traits<char>,std::allocator<char> >
PUBLIC	??$?HDU?$char_traits@D@std@@V?$allocator@D@1@@std@@YA?AV?$basic_string@DU?$char_traits@D@std@@V?$allocator@D@2@@0@$$QAV10@ABV10@@Z ; std::operator+<char,std::char_traits<char>,std::allocator<char> >
PUBLIC	??$?6DU?$char_traits@D@std@@V?$allocator@D@1@@std@@YAAAV?$basic_ostream@DU?$char_traits@D@std@@@0@AAV10@ABV?$basic_string@DU?$char_traits@D@std@@V?$allocator@D@2@@0@@Z ; std::operator<<<char,std::char_traits<char>,std::allocator<char> >
PUBLIC	??$?6U?$char_traits@D@std@@@std@@YAAAV?$basic_ostream@DU?$char_traits@D@std@@@0@AAV10@PBD@Z ; std::operator<<<std::char_traits<char> >
PUBLIC	??$endl@DU?$char_traits@D@std@@@std@@YAAAV?$basic_ostream@DU?$char_traits@D@std@@@0@AAV10@@Z ; std::endl<char,std::char_traits<char> >
PUBLIC	??$strcat_s@$05@@YAHAAY05DPBD@Z			; strcat_s<6>
PUBLIC	??0_Sentry_base@?$basic_ostream@DU?$char_traits@D@std@@@std@@QAE@AAV12@@Z ; std::basic_ostream<char,std::char_traits<char> >::_Sentry_base::_Sentry_base
PUBLIC	??1_Sentry_base@?$basic_ostream@DU?$char_traits@D@std@@@std@@QAE@XZ ; std::basic_ostream<char,std::char_traits<char> >::_Sentry_base::~_Sentry_base
PUBLIC	??0sentry@?$basic_ostream@DU?$char_traits@D@std@@@std@@QAE@AAV12@@Z ; std::basic_ostream<char,std::char_traits<char> >::sentry::sentry
PUBLIC	??1sentry@?$basic_ostream@DU?$char_traits@D@std@@@std@@QAE@XZ ; std::basic_ostream<char,std::char_traits<char> >::sentry::~sentry
PUBLIC	??Bsentry@?$basic_ostream@DU?$char_traits@D@std@@@std@@QBE_NXZ ; std::basic_ostream<char,std::char_traits<char> >::sentry::operator bool
PUBLIC	??$move@AAV?$basic_string@DU?$char_traits@D@std@@V?$allocator@D@2@@std@@@std@@YA$$QAV?$basic_string@DU?$char_traits@D@std@@V?$allocator@D@2@@0@AAV10@@Z ; std::move<std::basic_string<char,std::char_traits<char>,std::allocator<char> > &>
PUBLIC	?allocate@?$allocator@U_Container_proxy@std@@@std@@QAEPAU_Container_proxy@2@I@Z ; std::allocator<std::_Container_proxy>::allocate
PUBLIC	??$_Delete_plain_internal@V?$allocator@U_Container_proxy@std@@@std@@@std@@YAXAAV?$allocator@U_Container_proxy@std@@@0@QAU_Container_proxy@0@@Z ; std::_Delete_plain_internal<std::allocator<std::_Container_proxy> >
PUBLIC	??0?$_Container_proxy_ptr12@V?$allocator@U_Container_proxy@std@@@std@@@std@@QAE@AAV?$allocator@U_Container_proxy@std@@@1@AAU_Container_base12@1@@Z ; std::_Container_proxy_ptr12<std::allocator<std::_Container_proxy> >::_Container_proxy_ptr12<std::allocator<std::_Container_proxy> >
PUBLIC	??1?$_Container_proxy_ptr12@V?$allocator@U_Container_proxy@std@@@std@@@std@@QAE@XZ ; std::_Container_proxy_ptr12<std::allocator<std::_Container_proxy> >::~_Container_proxy_ptr12<std::allocator<std::_Container_proxy> >
PUBLIC	??$_Unfancy@D@std@@YAPADPAD@Z			; std::_Unfancy<char>
PUBLIC	??$?0D@?$allocator@U_Container_proxy@std@@@std@@QAE@ABV?$allocator@D@1@@Z ; std::allocator<std::_Container_proxy>::allocator<std::_Container_proxy><char>
PUBLIC	??$move@AAV?$allocator@D@std@@@std@@YA$$QAV?$allocator@D@0@AAV10@@Z ; std::move<std::allocator<char> &>
PUBLIC	??$?0V?$allocator@D@std@@$$V@?$_Compressed_pair@V?$allocator@D@std@@V?$_String_val@U?$_Simple_types@D@std@@@2@$00@std@@QAE@U_One_then_variadic_args_t@1@$$QAV?$allocator@D@1@@Z ; std::_Compressed_pair<std::allocator<char>,std::_String_val<std::_Simple_types<char> >,1>::_Compressed_pair<std::allocator<char>,std::_String_val<std::_Simple_types<char> >,1><std::allocator<char> >
PUBLIC	??$_Alloc_proxy@V?$allocator@U_Container_proxy@std@@@std@@@_Container_base12@std@@QAEX$$QAV?$allocator@U_Container_proxy@std@@@1@@Z ; std::_Container_base12::_Alloc_proxy<std::allocator<std::_Container_proxy> >
PUBLIC	??$?0$$V@?$_Compressed_pair@V?$allocator@D@std@@V?$_String_val@U?$_Simple_types@D@std@@@2@$00@std@@QAE@U_Zero_then_variadic_args_t@1@@Z ; std::_Compressed_pair<std::allocator<char>,std::_String_val<std::_Simple_types<char> >,1>::_Compressed_pair<std::allocator<char>,std::_String_val<std::_Simple_types<char> >,1><>
PUBLIC	??$_Unfancy@U_Container_proxy@std@@@std@@YAPAU_Container_proxy@0@PAU10@@Z ; std::_Unfancy<std::_Container_proxy>
PUBLIC	??$_Destroy_in_place@PAD@std@@YAXAAPAD@Z	; std::_Destroy_in_place<char *>
PUBLIC	??$_Max_value@I@std@@YAABIABI0@Z		; std::_Max_value<unsigned int>
PUBLIC	??R<lambda_9366063389c5f42a00a5088cf24e69de>@@QBEXQADIQBD@Z ; <lambda_9366063389c5f42a00a5088cf24e69de>::operator()
PUBLIC	??$_Reallocate_for@V<lambda_9366063389c5f42a00a5088cf24e69de>@@PBD@?$basic_string@DU?$char_traits@D@std@@V?$allocator@D@2@@std@@AAEAAV01@IV<lambda_9366063389c5f42a00a5088cf24e69de>@@PBD@Z ; std::basic_string<char,std::char_traits<char>,std::allocator<char> >::_Reallocate_for<<lambda_9366063389c5f42a00a5088cf24e69de>,char const *>
PUBLIC	??R<lambda_ab246b20b9526e2ef7792587e4298a77>@@QBEXQADQBDI1I@Z ; <lambda_ab246b20b9526e2ef7792587e4298a77>::operator()
PUBLIC	??$_Reallocate_grow_by@V<lambda_ab246b20b9526e2ef7792587e4298a77>@@PBDI@?$basic_string@DU?$char_traits@D@std@@V?$allocator@D@2@@std@@AAEAAV01@IV<lambda_ab246b20b9526e2ef7792587e4298a77>@@PBDI@Z ; std::basic_string<char,std::char_traits<char>,std::allocator<char> >::_Reallocate_grow_by<<lambda_ab246b20b9526e2ef7792587e4298a77>,char const *,unsigned int>
PUBLIC	??$_Construct_in_place@PADABQAD@std@@YAXAAPADABQAD@Z ; std::_Construct_in_place<char *,char * const &>
PUBLIC	??$_Get_size_of_n@$00@std@@YAII@Z		; std::_Get_size_of_n<1>
PUBLIC	??$_Allocate@$07U_Default_allocate_traits@std@@$0A@@std@@YAPAXI@Z ; std::_Allocate<8,std::_Default_allocate_traits,0>
PUBLIC	??$_Deallocate@$07$0A@@std@@YAXPAXI@Z		; std::_Deallocate<8,0>
PUBLIC	??$_Get_size_of_n@$07@std@@YAII@Z		; std::_Get_size_of_n<8>
PUBLIC	??$addressof@V?$_String_val@U?$_Simple_types@D@std@@@std@@@std@@YAPAV?$_String_val@U?$_Simple_types@D@std@@@0@AAV10@@Z ; std::addressof<std::_String_val<std::_Simple_types<char> > >
PUBLIC	??$addressof@$$CBV?$_String_val@U?$_Simple_types@D@std@@@std@@@std@@YAPBV?$_String_val@U?$_Simple_types@D@std@@@0@ABV10@@Z ; std::addressof<std::_String_val<std::_Simple_types<char> > const >
PUBLIC	??$addressof@U_Container_proxy@std@@@std@@YAPAU_Container_proxy@0@AAU10@@Z ; std::addressof<std::_Container_proxy>
PUBLIC	??$forward@PAU_Container_base12@std@@@std@@YA$$QAPAU_Container_base12@0@AAPAU10@@Z ; std::forward<std::_Container_base12 *>
PUBLIC	??$_Insert_string@DU?$char_traits@D@std@@I@std@@YAAAV?$basic_ostream@DU?$char_traits@D@std@@@0@AAV10@QBDI@Z ; std::_Insert_string<char,std::char_traits<char>,unsigned int>
PUBLIC	??$_Deallocate_plain@V?$allocator@U_Container_proxy@std@@@std@@@std@@YAXAAV?$allocator@U_Container_proxy@std@@@0@QAU_Container_proxy@0@@Z ; std::_Deallocate_plain<std::allocator<std::_Container_proxy> >
PUBLIC	??$forward@V?$allocator@D@std@@@std@@YA$$QAV?$allocator@D@0@AAV10@@Z ; std::forward<std::allocator<char> >
PUBLIC	??$addressof@PAD@std@@YAPAPADAAPAD@Z		; std::addressof<char *>
PUBLIC	??$forward@ABQAD@std@@YAABQADABQAD@Z		; std::forward<char * const &>
PUBLIC	??$_Allocate_manually_vector_aligned@U_Default_allocate_traits@std@@@std@@YAPAXI@Z ; std::_Allocate_manually_vector_aligned<std::_Default_allocate_traits>
PUBLIC	??R<lambda_67d87d4aa1269033985980465fd1d824>@@QBEXQADQBDI@Z ; <lambda_67d87d4aa1269033985980465fd1d824>::operator()
PUBLIC	??$_Reallocate_grow_by@V<lambda_67d87d4aa1269033985980465fd1d824>@@$$V@?$basic_string@DU?$char_traits@D@std@@V?$allocator@D@2@@std@@AAEAAV01@IV<lambda_67d87d4aa1269033985980465fd1d824>@@@Z ; std::basic_string<char,std::char_traits<char>,std::allocator<char> >::_Reallocate_grow_by<<lambda_67d87d4aa1269033985980465fd1d824> >
PUBLIC	?deallocate@?$_Default_allocator_traits@V?$allocator@U_Container_proxy@std@@@std@@@std@@SAXAAV?$allocator@U_Container_proxy@std@@@2@QAU_Container_proxy@2@I@Z ; std::_Default_allocator_traits<std::allocator<std::_Container_proxy> >::deallocate
PUBLIC	__JustMyCode_Default
PUBLIC	??_7exception@std@@6B@				; std::exception::`vftable'
PUBLIC	??_C@_0BC@EOODALEL@Unknown?5exception@		; `string'
PUBLIC	??_7bad_alloc@std@@6B@				; std::bad_alloc::`vftable'
PUBLIC	??_7bad_array_new_length@std@@6B@		; std::bad_array_new_length::`vftable'
PUBLIC	??_C@_0BF@KINCDENJ@bad?5array?5new?5length@	; `string'
PUBLIC	__TI3?AVbad_array_new_length@std@@
PUBLIC	__CTA3?AVbad_array_new_length@std@@
PUBLIC	??_R0?AVbad_array_new_length@std@@@8		; std::bad_array_new_length `RTTI Type Descriptor'
PUBLIC	__CT??_R0?AVbad_array_new_length@std@@@8??0bad_array_new_length@std@@QAE@ABV01@@Z12
PUBLIC	??_R0?AVbad_alloc@std@@@8			; std::bad_alloc `RTTI Type Descriptor'
PUBLIC	__CT??_R0?AVbad_alloc@std@@@8??0bad_alloc@std@@QAE@ABV01@@Z12
PUBLIC	??_R0?AVexception@std@@@8			; std::exception `RTTI Type Descriptor'
PUBLIC	__CT??_R0?AVexception@std@@@8??0exception@std@@QAE@ABV01@@Z12
PUBLIC	?__LINE__Var@?0??_Adjust_manually_vector_aligned@std@@YAXAAPAXAAI@Z@4JA ; `std::_Adjust_manually_vector_aligned'::`1'::__LINE__Var
PUBLIC	??_C@_0BB@FCMFBGOM@invalid?5argument@		; `string'
PUBLIC	??_C@_02DKCKIIND@?$CFs@				; `string'
PUBLIC	??_C@_0GI@FJIKDGOA@C?3?2Program?5Files?5?$CIx86?$CJ?2Microsof@ ; `string'
PUBLIC	??_C@_1NA@CDBIFGMM@?$AAC?$AA?3?$AA?2?$AAP?$AAr?$AAo?$AAg?$AAr?$AAa?$AAm?$AA?5?$AAF?$AAi?$AAl?$AAe@ ; `string'
PUBLIC	??_C@_1EK@NIFDJFDG@?$AAs?$AAt?$AAd?$AA?3?$AA?3?$AA_?$AAA?$AAd?$AAj?$AAu?$AAs?$AAt?$AA_?$AAm?$AAa@ ; `string'
PUBLIC	??_C@_1CG@JNLFBNGN@?$AA?$CC?$AAi?$AAn?$AAv?$AAa?$AAl?$AAi?$AAd?$AA?5?$AAa?$AAr?$AAg?$AAu?$AAm?$AAe@ ; `string'
PUBLIC	??_C@_05CJBACGMB@hello@				; `string'
PUBLIC	??_C@_05MCBCHHEJ@world@				; `string'
PUBLIC	??_C@_01CLKCMJKC@?5@				; `string'
PUBLIC	??_C@_06BHDKPABF@worlsd@			; `string'
PUBLIC	??_C@_0BA@JFNIOLAK@string?5too?5long@		; `string'
PUBLIC	??_C@_1EO@GFNCMDLA@?$AAs?$AAt?$AAd?$AA?3?$AA?3?$AA_?$AAA?$AAl?$AAl?$AAo?$AAc?$AAa?$AAt?$AAe?$AA_@ ; `string'
PUBLIC	??_R4exception@std@@6B@				; std::exception::`RTTI Complete Object Locator'
PUBLIC	??_R3exception@std@@8				; std::exception::`RTTI Class Hierarchy Descriptor'
PUBLIC	??_R2exception@std@@8				; std::exception::`RTTI Base Class Array'
PUBLIC	??_R1A@?0A@EA@exception@std@@8			; std::exception::`RTTI Base Class Descriptor at (0,-1,0,64)'
PUBLIC	??_R4bad_alloc@std@@6B@				; std::bad_alloc::`RTTI Complete Object Locator'
PUBLIC	??_R3bad_alloc@std@@8				; std::bad_alloc::`RTTI Class Hierarchy Descriptor'
PUBLIC	??_R2bad_alloc@std@@8				; std::bad_alloc::`RTTI Base Class Array'
PUBLIC	??_R1A@?0A@EA@bad_alloc@std@@8			; std::bad_alloc::`RTTI Base Class Descriptor at (0,-1,0,64)'
PUBLIC	??_R4bad_array_new_length@std@@6B@		; std::bad_array_new_length::`RTTI Complete Object Locator'
PUBLIC	??_R3bad_array_new_length@std@@8		; std::bad_array_new_length::`RTTI Class Hierarchy Descriptor'
PUBLIC	??_R2bad_array_new_length@std@@8		; std::bad_array_new_length::`RTTI Base Class Array'
PUBLIC	??_R1A@?0A@EA@bad_array_new_length@std@@8	; std::bad_array_new_length::`RTTI Base Class Descriptor at (0,-1,0,64)'
EXTRN	??2@YAPAXI@Z:PROC				; operator new
EXTRN	??3@YAXPAXI@Z:PROC				; operator delete
EXTRN	__imp___invalid_parameter:PROC
EXTRN	__imp___CrtDbgReport:PROC
EXTRN	__imp_??0_Lockit@std@@QAE@H@Z:PROC
EXTRN	__imp_??1_Lockit@std@@QAE@XZ:PROC
EXTRN	?uncaught_exception@std@@YA_NXZ:PROC		; std::uncaught_exception
EXTRN	___std_exception_copy:PROC
EXTRN	___std_exception_destroy:PROC
EXTRN	??_Eexception@std@@UAEPAXI@Z:PROC		; std::exception::`vector deleting destructor'
EXTRN	??_Ebad_alloc@std@@UAEPAXI@Z:PROC		; std::bad_alloc::`vector deleting destructor'
EXTRN	??_Ebad_array_new_length@std@@UAEPAXI@Z:PROC	; std::bad_array_new_length::`vector deleting destructor'
EXTRN	_memcpy:PROC
EXTRN	_memmove:PROC
EXTRN	__imp__strcat_s:PROC
EXTRN	_strcmp:PROC
EXTRN	_strlen:PROC
EXTRN	?_Xlength_error@std@@YAXPBD@Z:PROC		; std::_Xlength_error
EXTRN	__imp_?good@ios_base@std@@QBE_NXZ:PROC
EXTRN	__imp_?flags@ios_base@std@@QBEHXZ:PROC
EXTRN	__imp_?width@ios_base@std@@QBE_JXZ:PROC
EXTRN	__imp_?width@ios_base@std@@QAE_J_J@Z:PROC
EXTRN	__imp_?sputc@?$basic_streambuf@DU?$char_traits@D@std@@@std@@QAEHD@Z:PROC
EXTRN	__imp_?sputn@?$basic_streambuf@DU?$char_traits@D@std@@@std@@QAE_JPBD_J@Z:PROC
EXTRN	__imp_?setstate@?$basic_ios@DU?$char_traits@D@std@@@std@@QAEXH_N@Z:PROC
EXTRN	__imp_?tie@?$basic_ios@DU?$char_traits@D@std@@@std@@QBEPAV?$basic_ostream@DU?$char_traits@D@std@@@2@XZ:PROC
EXTRN	__imp_?rdbuf@?$basic_ios@DU?$char_traits@D@std@@@std@@QBEPAV?$basic_streambuf@DU?$char_traits@D@std@@@2@XZ:PROC
EXTRN	__imp_?fill@?$basic_ios@DU?$char_traits@D@std@@@std@@QBEDXZ:PROC
EXTRN	__imp_?widen@?$basic_ios@DU?$char_traits@D@std@@@std@@QBEDD@Z:PROC
EXTRN	__imp_?_Osfx@?$basic_ostream@DU?$char_traits@D@std@@@std@@QAEXXZ:PROC
EXTRN	__imp_??6?$basic_ostream@DU?$char_traits@D@std@@@std@@QAEAAV01@P6AAAV01@AAV01@@Z@Z:PROC
EXTRN	__imp_??6?$basic_ostream@DU?$char_traits@D@std@@@std@@QAEAAV01@H@Z:PROC
EXTRN	__imp_?put@?$basic_ostream@DU?$char_traits@D@std@@@std@@QAEAAV12@D@Z:PROC
EXTRN	__imp_?flush@?$basic_ostream@DU?$char_traits@D@std@@@std@@QAEAAV12@XZ:PROC
EXTRN	__imp_?get@?$basic_istream@DU?$char_traits@D@std@@@std@@QAEHXZ:PROC
EXTRN	@_RTC_CheckStackVars@8:PROC
EXTRN	@__CheckForDebuggerJustMyCode@4:PROC
EXTRN	@__security_check_cookie@4:PROC
EXTRN	__CxxThrowException@8:PROC
EXTRN	__RTC_CheckEsp:PROC
EXTRN	__RTC_InitBase:PROC
EXTRN	__RTC_Shutdown:PROC
EXTRN	___CxxFrameHandler3:PROC
EXTRN	??_7type_info@@6B@:QWORD			; type_info::`vftable'
EXTRN	__imp_?cin@std@@3V?$basic_istream@DU?$char_traits@D@std@@@1@A:BYTE
EXTRN	__imp_?cout@std@@3V?$basic_ostream@DU?$char_traits@D@std@@@1@A:BYTE
EXTRN	___security_cookie:DWORD
;	COMDAT rtc$TMZ
rtc$TMZ	SEGMENT
__RTC_Shutdown.rtc$TMZ DD FLAT:__RTC_Shutdown
rtc$TMZ	ENDS
;	COMDAT rtc$IMZ
rtc$IMZ	SEGMENT
__RTC_InitBase.rtc$IMZ DD FLAT:__RTC_InitBase
rtc$IMZ	ENDS
;	COMDAT ??_R1A@?0A@EA@bad_array_new_length@std@@8
rdata$r	SEGMENT
??_R1A@?0A@EA@bad_array_new_length@std@@8 DD FLAT:??_R0?AVbad_array_new_length@std@@@8 ; std::bad_array_new_length::`RTTI Base Class Descriptor at (0,-1,0,64)'
	DD	02H
	DD	00H
	DD	0ffffffffH
	DD	00H
	DD	040H
	DD	FLAT:??_R3bad_array_new_length@std@@8
rdata$r	ENDS
;	COMDAT ??_R2bad_array_new_length@std@@8
rdata$r	SEGMENT
??_R2bad_array_new_length@std@@8 DD FLAT:??_R1A@?0A@EA@bad_array_new_length@std@@8 ; std::bad_array_new_length::`RTTI Base Class Array'
	DD	FLAT:??_R1A@?0A@EA@bad_alloc@std@@8
	DD	FLAT:??_R1A@?0A@EA@exception@std@@8
rdata$r	ENDS
;	COMDAT ??_R3bad_array_new_length@std@@8
rdata$r	SEGMENT
??_R3bad_array_new_length@std@@8 DD 00H			; std::bad_array_new_length::`RTTI Class Hierarchy Descriptor'
	DD	00H
	DD	03H
	DD	FLAT:??_R2bad_array_new_length@std@@8
rdata$r	ENDS
;	COMDAT ??_R4bad_array_new_length@std@@6B@
rdata$r	SEGMENT
??_R4bad_array_new_length@std@@6B@ DD 00H		; std::bad_array_new_length::`RTTI Complete Object Locator'
	DD	00H
	DD	00H
	DD	FLAT:??_R0?AVbad_array_new_length@std@@@8
	DD	FLAT:??_R3bad_array_new_length@std@@8
rdata$r	ENDS
;	COMDAT ??_R1A@?0A@EA@bad_alloc@std@@8
rdata$r	SEGMENT
??_R1A@?0A@EA@bad_alloc@std@@8 DD FLAT:??_R0?AVbad_alloc@std@@@8 ; std::bad_alloc::`RTTI Base Class Descriptor at (0,-1,0,64)'
	DD	01H
	DD	00H
	DD	0ffffffffH
	DD	00H
	DD	040H
	DD	FLAT:??_R3bad_alloc@std@@8
rdata$r	ENDS
;	COMDAT ??_R2bad_alloc@std@@8
rdata$r	SEGMENT
??_R2bad_alloc@std@@8 DD FLAT:??_R1A@?0A@EA@bad_alloc@std@@8 ; std::bad_alloc::`RTTI Base Class Array'
	DD	FLAT:??_R1A@?0A@EA@exception@std@@8
rdata$r	ENDS
;	COMDAT ??_R3bad_alloc@std@@8
rdata$r	SEGMENT
??_R3bad_alloc@std@@8 DD 00H				; std::bad_alloc::`RTTI Class Hierarchy Descriptor'
	DD	00H
	DD	02H
	DD	FLAT:??_R2bad_alloc@std@@8
rdata$r	ENDS
;	COMDAT ??_R4bad_alloc@std@@6B@
rdata$r	SEGMENT
??_R4bad_alloc@std@@6B@ DD 00H				; std::bad_alloc::`RTTI Complete Object Locator'
	DD	00H
	DD	00H
	DD	FLAT:??_R0?AVbad_alloc@std@@@8
	DD	FLAT:??_R3bad_alloc@std@@8
rdata$r	ENDS
;	COMDAT ??_R1A@?0A@EA@exception@std@@8
rdata$r	SEGMENT
??_R1A@?0A@EA@exception@std@@8 DD FLAT:??_R0?AVexception@std@@@8 ; std::exception::`RTTI Base Class Descriptor at (0,-1,0,64)'
	DD	00H
	DD	00H
	DD	0ffffffffH
	DD	00H
	DD	040H
	DD	FLAT:??_R3exception@std@@8
rdata$r	ENDS
;	COMDAT ??_R2exception@std@@8
rdata$r	SEGMENT
??_R2exception@std@@8 DD FLAT:??_R1A@?0A@EA@exception@std@@8 ; std::exception::`RTTI Base Class Array'
rdata$r	ENDS
;	COMDAT ??_R3exception@std@@8
rdata$r	SEGMENT
??_R3exception@std@@8 DD 00H				; std::exception::`RTTI Class Hierarchy Descriptor'
	DD	00H
	DD	01H
	DD	FLAT:??_R2exception@std@@8
rdata$r	ENDS
;	COMDAT ??_R4exception@std@@6B@
rdata$r	SEGMENT
??_R4exception@std@@6B@ DD 00H				; std::exception::`RTTI Complete Object Locator'
	DD	00H
	DD	00H
	DD	FLAT:??_R0?AVexception@std@@@8
	DD	FLAT:??_R3exception@std@@8
rdata$r	ENDS
;	COMDAT ??_C@_1EO@GFNCMDLA@?$AAs?$AAt?$AAd?$AA?3?$AA?3?$AA_?$AAA?$AAl?$AAl?$AAo?$AAc?$AAa?$AAt?$AAe?$AA_@
CONST	SEGMENT
??_C@_1EO@GFNCMDLA@?$AAs?$AAt?$AAd?$AA?3?$AA?3?$AA_?$AAA?$AAl?$AAl?$AAo?$AAc?$AAa?$AAt?$AAe?$AA_@ DB 's'
	DB	00H, 't', 00H, 'd', 00H, ':', 00H, ':', 00H, '_', 00H, 'A', 00H
	DB	'l', 00H, 'l', 00H, 'o', 00H, 'c', 00H, 'a', 00H, 't', 00H, 'e'
	DB	00H, '_', 00H, 'm', 00H, 'a', 00H, 'n', 00H, 'u', 00H, 'a', 00H
	DB	'l', 00H, 'l', 00H, 'y', 00H, '_', 00H, 'v', 00H, 'e', 00H, 'c'
	DB	00H, 't', 00H, 'o', 00H, 'r', 00H, '_', 00H, 'a', 00H, 'l', 00H
	DB	'i', 00H, 'g', 00H, 'n', 00H, 'e', 00H, 'd', 00H, 00H, 00H ; `string'
CONST	ENDS
;	COMDAT ??_C@_0BA@JFNIOLAK@string?5too?5long@
CONST	SEGMENT
??_C@_0BA@JFNIOLAK@string?5too?5long@ DB 'string too long', 00H ; `string'
CONST	ENDS
;	COMDAT ??_C@_06BHDKPABF@worlsd@
CONST	SEGMENT
??_C@_06BHDKPABF@worlsd@ DB 'worlsd', 00H		; `string'
CONST	ENDS
;	COMDAT ??_C@_01CLKCMJKC@?5@
CONST	SEGMENT
??_C@_01CLKCMJKC@?5@ DB ' ', 00H			; `string'
CONST	ENDS
;	COMDAT ??_C@_05MCBCHHEJ@world@
CONST	SEGMENT
??_C@_05MCBCHHEJ@world@ DB 'world', 00H			; `string'
CONST	ENDS
;	COMDAT ??_C@_05CJBACGMB@hello@
CONST	SEGMENT
??_C@_05CJBACGMB@hello@ DB 'hello', 00H			; `string'
CONST	ENDS
;	COMDAT ??_C@_1CG@JNLFBNGN@?$AA?$CC?$AAi?$AAn?$AAv?$AAa?$AAl?$AAi?$AAd?$AA?5?$AAa?$AAr?$AAg?$AAu?$AAm?$AAe@
CONST	SEGMENT
??_C@_1CG@JNLFBNGN@?$AA?$CC?$AAi?$AAn?$AAv?$AAa?$AAl?$AAi?$AAd?$AA?5?$AAa?$AAr?$AAg?$AAu?$AAm?$AAe@ DB '"'
	DB	00H, 'i', 00H, 'n', 00H, 'v', 00H, 'a', 00H, 'l', 00H, 'i', 00H
	DB	'd', 00H, ' ', 00H, 'a', 00H, 'r', 00H, 'g', 00H, 'u', 00H, 'm'
	DB	00H, 'e', 00H, 'n', 00H, 't', 00H, '"', 00H, 00H, 00H ; `string'
CONST	ENDS
;	COMDAT ??_C@_1EK@NIFDJFDG@?$AAs?$AAt?$AAd?$AA?3?$AA?3?$AA_?$AAA?$AAd?$AAj?$AAu?$AAs?$AAt?$AA_?$AAm?$AAa@
CONST	SEGMENT
??_C@_1EK@NIFDJFDG@?$AAs?$AAt?$AAd?$AA?3?$AA?3?$AA_?$AAA?$AAd?$AAj?$AAu?$AAs?$AAt?$AA_?$AAm?$AAa@ DB 's'
	DB	00H, 't', 00H, 'd', 00H, ':', 00H, ':', 00H, '_', 00H, 'A', 00H
	DB	'd', 00H, 'j', 00H, 'u', 00H, 's', 00H, 't', 00H, '_', 00H, 'm'
	DB	00H, 'a', 00H, 'n', 00H, 'u', 00H, 'a', 00H, 'l', 00H, 'l', 00H
	DB	'y', 00H, '_', 00H, 'v', 00H, 'e', 00H, 'c', 00H, 't', 00H, 'o'
	DB	00H, 'r', 00H, '_', 00H, 'a', 00H, 'l', 00H, 'i', 00H, 'g', 00H
	DB	'n', 00H, 'e', 00H, 'd', 00H, 00H, 00H	; `string'
CONST	ENDS
;	COMDAT ??_C@_1NA@CDBIFGMM@?$AAC?$AA?3?$AA?2?$AAP?$AAr?$AAo?$AAg?$AAr?$AAa?$AAm?$AA?5?$AAF?$AAi?$AAl?$AAe@
CONST	SEGMENT
??_C@_1NA@CDBIFGMM@?$AAC?$AA?3?$AA?2?$AAP?$AAr?$AAo?$AAg?$AAr?$AAa?$AAm?$AA?5?$AAF?$AAi?$AAl?$AAe@ DB 'C'
	DB	00H, ':', 00H, '\', 00H, 'P', 00H, 'r', 00H, 'o', 00H, 'g', 00H
	DB	'r', 00H, 'a', 00H, 'm', 00H, ' ', 00H, 'F', 00H, 'i', 00H, 'l'
	DB	00H, 'e', 00H, 's', 00H, ' ', 00H, '(', 00H, 'x', 00H, '8', 00H
	DB	'6', 00H, ')', 00H, '\', 00H, 'M', 00H, 'i', 00H, 'c', 00H, 'r'
	DB	00H, 'o', 00H, 's', 00H, 'o', 00H, 'f', 00H, 't', 00H, ' ', 00H
	DB	'V', 00H, 'i', 00H, 's', 00H, 'u', 00H, 'a', 00H, 'l', 00H, ' '
	DB	00H, 'S', 00H, 't', 00H, 'u', 00H, 'd', 00H, 'i', 00H, 'o', 00H
	DB	'\', 00H, '2', 00H, '0', 00H, '1', 00H, '9', 00H, '\', 00H, 'C'
	DB	00H, 'o', 00H, 'm', 00H, 'm', 00H, 'u', 00H, 'n', 00H, 'i', 00H
	DB	't', 00H, 'y', 00H, '\', 00H, 'V', 00H, 'C', 00H, '\', 00H, 'T'
	DB	00H, 'o', 00H, 'o', 00H, 'l', 00H, 's', 00H, '\', 00H, 'M', 00H
	DB	'S', 00H, 'V', 00H, 'C', 00H, '\', 00H, '1', 00H, '4', 00H, '.'
	DB	00H, '2', 00H, '3', 00H, '.', 00H, '2', 00H, '8', 00H, '1', 00H
	DB	'0', 00H, '5', 00H, '\', 00H, 'i', 00H, 'n', 00H, 'c', 00H, 'l'
	DB	00H, 'u', 00H, 'd', 00H, 'e', 00H, '\', 00H, 'x', 00H, 'm', 00H
	DB	'e', 00H, 'm', 00H, 'o', 00H, 'r', 00H, 'y', 00H, 00H, 00H ; `string'
CONST	ENDS
;	COMDAT ??_C@_0GI@FJIKDGOA@C?3?2Program?5Files?5?$CIx86?$CJ?2Microsof@
CONST	SEGMENT
??_C@_0GI@FJIKDGOA@C?3?2Program?5Files?5?$CIx86?$CJ?2Microsof@ DB 'C:\Pro'
	DB	'gram Files (x86)\Microsoft Visual Studio\2019\Community\VC\To'
	DB	'ols\MSVC\14.23.28105\include\xmemory', 00H	; `string'
CONST	ENDS
;	COMDAT ??_C@_02DKCKIIND@?$CFs@
CONST	SEGMENT
??_C@_02DKCKIIND@?$CFs@ DB '%s', 00H			; `string'
CONST	ENDS
;	COMDAT ??_C@_0BB@FCMFBGOM@invalid?5argument@
CONST	SEGMENT
??_C@_0BB@FCMFBGOM@invalid?5argument@ DB 'invalid argument', 00H ; `string'
CONST	ENDS
;	COMDAT ?__LINE__Var@?0??_Adjust_manually_vector_aligned@std@@YAXAAPAXAAI@Z@4JA
_DATA	SEGMENT
?__LINE__Var@?0??_Adjust_manually_vector_aligned@std@@YAXAAPAXAAI@Z@4JA DD 066H ; `std::_Adjust_manually_vector_aligned'::`1'::__LINE__Var
_DATA	ENDS
;	COMDAT __CT??_R0?AVexception@std@@@8??0exception@std@@QAE@ABV01@@Z12
xdata$x	SEGMENT
__CT??_R0?AVexception@std@@@8??0exception@std@@QAE@ABV01@@Z12 DD 00H
	DD	FLAT:??_R0?AVexception@std@@@8
	DD	00H
	DD	0ffffffffH
	ORG $+4
	DD	0cH
	DD	FLAT:??0exception@std@@QAE@ABV01@@Z
xdata$x	ENDS
;	COMDAT ??_R0?AVexception@std@@@8
data$r	SEGMENT
??_R0?AVexception@std@@@8 DD FLAT:??_7type_info@@6B@	; std::exception `RTTI Type Descriptor'
	DD	00H
	DB	'.?AVexception@std@@', 00H
data$r	ENDS
;	COMDAT __CT??_R0?AVbad_alloc@std@@@8??0bad_alloc@std@@QAE@ABV01@@Z12
xdata$x	SEGMENT
__CT??_R0?AVbad_alloc@std@@@8??0bad_alloc@std@@QAE@ABV01@@Z12 DD 010H
	DD	FLAT:??_R0?AVbad_alloc@std@@@8
	DD	00H
	DD	0ffffffffH
	ORG $+4
	DD	0cH
	DD	FLAT:??0bad_alloc@std@@QAE@ABV01@@Z
xdata$x	ENDS
;	COMDAT ??_R0?AVbad_alloc@std@@@8
data$r	SEGMENT
??_R0?AVbad_alloc@std@@@8 DD FLAT:??_7type_info@@6B@	; std::bad_alloc `RTTI Type Descriptor'
	DD	00H
	DB	'.?AVbad_alloc@std@@', 00H
data$r	ENDS
;	COMDAT __CT??_R0?AVbad_array_new_length@std@@@8??0bad_array_new_length@std@@QAE@ABV01@@Z12
xdata$x	SEGMENT
__CT??_R0?AVbad_array_new_length@std@@@8??0bad_array_new_length@std@@QAE@ABV01@@Z12 DD 00H
	DD	FLAT:??_R0?AVbad_array_new_length@std@@@8
	DD	00H
	DD	0ffffffffH
	ORG $+4
	DD	0cH
	DD	FLAT:??0bad_array_new_length@std@@QAE@ABV01@@Z
xdata$x	ENDS
;	COMDAT ??_R0?AVbad_array_new_length@std@@@8
data$r	SEGMENT
??_R0?AVbad_array_new_length@std@@@8 DD FLAT:??_7type_info@@6B@ ; std::bad_array_new_length `RTTI Type Descriptor'
	DD	00H
	DB	'.?AVbad_array_new_length@std@@', 00H
data$r	ENDS
;	COMDAT __CTA3?AVbad_array_new_length@std@@
xdata$x	SEGMENT
__CTA3?AVbad_array_new_length@std@@ DD 03H
	DD	FLAT:__CT??_R0?AVbad_array_new_length@std@@@8??0bad_array_new_length@std@@QAE@ABV01@@Z12
	DD	FLAT:__CT??_R0?AVbad_alloc@std@@@8??0bad_alloc@std@@QAE@ABV01@@Z12
	DD	FLAT:__CT??_R0?AVexception@std@@@8??0exception@std@@QAE@ABV01@@Z12
xdata$x	ENDS
;	COMDAT __TI3?AVbad_array_new_length@std@@
xdata$x	SEGMENT
__TI3?AVbad_array_new_length@std@@ DD 00H
	DD	FLAT:??1bad_array_new_length@std@@UAE@XZ
	DD	00H
	DD	FLAT:__CTA3?AVbad_array_new_length@std@@
xdata$x	ENDS
;	COMDAT ??_C@_0BF@KINCDENJ@bad?5array?5new?5length@
CONST	SEGMENT
??_C@_0BF@KINCDENJ@bad?5array?5new?5length@ DB 'bad array new length', 00H ; `string'
CONST	ENDS
;	COMDAT ??_7bad_array_new_length@std@@6B@
CONST	SEGMENT
??_7bad_array_new_length@std@@6B@ DD FLAT:??_R4bad_array_new_length@std@@6B@ ; std::bad_array_new_length::`vftable'
	DD	FLAT:??_Ebad_array_new_length@std@@UAEPAXI@Z
	DD	FLAT:?what@exception@std@@UBEPBDXZ
CONST	ENDS
;	COMDAT ??_7bad_alloc@std@@6B@
CONST	SEGMENT
??_7bad_alloc@std@@6B@ DD FLAT:??_R4bad_alloc@std@@6B@	; std::bad_alloc::`vftable'
	DD	FLAT:??_Ebad_alloc@std@@UAEPAXI@Z
	DD	FLAT:?what@exception@std@@UBEPBDXZ
CONST	ENDS
;	COMDAT ??_C@_0BC@EOODALEL@Unknown?5exception@
CONST	SEGMENT
??_C@_0BC@EOODALEL@Unknown?5exception@ DB 'Unknown exception', 00H ; `string'
CONST	ENDS
;	COMDAT ??_7exception@std@@6B@
CONST	SEGMENT
??_7exception@std@@6B@ DD FLAT:??_R4exception@std@@6B@	; std::exception::`vftable'
	DD	FLAT:??_Eexception@std@@UAEPAXI@Z
	DD	FLAT:?what@exception@std@@UBEPBDXZ
CONST	ENDS
;	COMDAT xdata$x
xdata$x	SEGMENT
__ehfuncinfo$??$forward@ABQAD@std@@YAABQADABQAD@Z DD 019930522H
	DD	00H
	DD	00H
	DD	2 DUP(00H)
	DD	2 DUP(00H)
	DD	00H
	DD	05H
xdata$x	ENDS
;	COMDAT xdata$x
xdata$x	SEGMENT
__ehfuncinfo$??$addressof@PAD@std@@YAPAPADAAPAD@Z DD 019930522H
	DD	00H
	DD	00H
	DD	2 DUP(00H)
	DD	2 DUP(00H)
	DD	00H
	DD	05H
xdata$x	ENDS
;	COMDAT xdata$x
xdata$x	SEGMENT
__ehfuncinfo$??$forward@V?$allocator@D@std@@@std@@YA$$QAV?$allocator@D@0@AAV10@@Z DD 019930522H
	DD	00H
	DD	00H
	DD	2 DUP(00H)
	DD	2 DUP(00H)
	DD	00H
	DD	05H
xdata$x	ENDS
;	COMDAT xdata$x
xdata$x	SEGMENT
__ehfuncinfo$??$_Deallocate_plain@V?$allocator@U_Container_proxy@std@@@std@@@std@@YAXAAV?$allocator@U_Container_proxy@std@@@0@QAU_Container_proxy@0@@Z DD 019930522H
	DD	00H
	DD	00H
	DD	2 DUP(00H)
	DD	2 DUP(00H)
	DD	00H
	DD	05H
xdata$x	ENDS
;	COMDAT xdata$x
xdata$x	SEGMENT
__catchsym$??$_Insert_string@DU?$char_traits@D@std@@I@std@@YAAAV?$basic_ostream@DU?$char_traits@D@std@@@0@AAV10@QBDI@Z$3 DD 040H
	DD	00H
	DD	00H
	DD	FLAT:__catch$??$_Insert_string@DU?$char_traits@D@std@@I@std@@YAAAV?$basic_ostream@DU?$char_traits@D@std@@@0@AAV10@QBDI@Z$0
__tryblocktable$??$_Insert_string@DU?$char_traits@D@std@@I@std@@YAAAV?$basic_ostream@DU?$char_traits@D@std@@@0@AAV10@QBDI@Z DD 01H
	DD	01H
	DD	02H
	DD	01H
	DD	FLAT:__catchsym$??$_Insert_string@DU?$char_traits@D@std@@I@std@@YAAAV?$basic_ostream@DU?$char_traits@D@std@@@0@AAV10@QBDI@Z$3
__unwindtable$??$_Insert_string@DU?$char_traits@D@std@@I@std@@YAAAV?$basic_ostream@DU?$char_traits@D@std@@@0@AAV10@QBDI@Z DD 0ffffffffH
	DD	FLAT:__unwindfunclet$??$_Insert_string@DU?$char_traits@D@std@@I@std@@YAAAV?$basic_ostream@DU?$char_traits@D@std@@@0@AAV10@QBDI@Z$2
	DD	00H
	DD	00H
	DD	00H
	DD	00H
__ehfuncinfo$??$_Insert_string@DU?$char_traits@D@std@@I@std@@YAAAV?$basic_ostream@DU?$char_traits@D@std@@@0@AAV10@QBDI@Z DD 019930522H
	DD	03H
	DD	FLAT:__unwindtable$??$_Insert_string@DU?$char_traits@D@std@@I@std@@YAAAV?$basic_ostream@DU?$char_traits@D@std@@@0@AAV10@QBDI@Z
	DD	01H
	DD	FLAT:__tryblocktable$??$_Insert_string@DU?$char_traits@D@std@@I@std@@YAAAV?$basic_ostream@DU?$char_traits@D@std@@@0@AAV10@QBDI@Z
	DD	2 DUP(00H)
	DD	00H
	DD	01H
xdata$x	ENDS
;	COMDAT xdata$x
xdata$x	SEGMENT
__ehfuncinfo$??$forward@PAU_Container_base12@std@@@std@@YA$$QAPAU_Container_base12@0@AAPAU10@@Z DD 019930522H
	DD	00H
	DD	00H
	DD	2 DUP(00H)
	DD	2 DUP(00H)
	DD	00H
	DD	05H
xdata$x	ENDS
;	COMDAT xdata$x
xdata$x	SEGMENT
__ehfuncinfo$??$addressof@U_Container_proxy@std@@@std@@YAPAU_Container_proxy@0@AAU10@@Z DD 019930522H
	DD	00H
	DD	00H
	DD	2 DUP(00H)
	DD	2 DUP(00H)
	DD	00H
	DD	05H
xdata$x	ENDS
;	COMDAT xdata$x
xdata$x	SEGMENT
__ehfuncinfo$??$addressof@$$CBV?$_String_val@U?$_Simple_types@D@std@@@std@@@std@@YAPBV?$_String_val@U?$_Simple_types@D@std@@@0@ABV10@@Z DD 019930522H
	DD	00H
	DD	00H
	DD	2 DUP(00H)
	DD	2 DUP(00H)
	DD	00H
	DD	05H
xdata$x	ENDS
;	COMDAT xdata$x
xdata$x	SEGMENT
__ehfuncinfo$??$addressof@V?$_String_val@U?$_Simple_types@D@std@@@std@@@std@@YAPAV?$_String_val@U?$_Simple_types@D@std@@@0@AAV10@@Z DD 019930522H
	DD	00H
	DD	00H
	DD	2 DUP(00H)
	DD	2 DUP(00H)
	DD	00H
	DD	05H
xdata$x	ENDS
;	COMDAT xdata$x
xdata$x	SEGMENT
__ehfuncinfo$??$_Deallocate@$07$0A@@std@@YAXPAXI@Z DD 019930522H
	DD	00H
	DD	00H
	DD	2 DUP(00H)
	DD	2 DUP(00H)
	DD	00H
	DD	05H
xdata$x	ENDS
;	COMDAT xdata$x
xdata$x	SEGMENT
__ehfuncinfo$??$_Construct_in_place@PADABQAD@std@@YAXAAPADABQAD@Z DD 019930522H
	DD	00H
	DD	00H
	DD	2 DUP(00H)
	DD	2 DUP(00H)
	DD	00H
	DD	05H
xdata$x	ENDS
;	COMDAT xdata$x
xdata$x	SEGMENT
__ehfuncinfo$??$_Max_value@I@std@@YAABIABI0@Z DD 019930522H
	DD	00H
	DD	00H
	DD	2 DUP(00H)
	DD	2 DUP(00H)
	DD	00H
	DD	05H
xdata$x	ENDS
;	COMDAT xdata$x
xdata$x	SEGMENT
__ehfuncinfo$??$_Destroy_in_place@PAD@std@@YAXAAPAD@Z DD 019930522H
	DD	00H
	DD	00H
	DD	2 DUP(00H)
	DD	2 DUP(00H)
	DD	00H
	DD	05H
xdata$x	ENDS
;	COMDAT xdata$x
xdata$x	SEGMENT
__ehfuncinfo$??$move@AAV?$allocator@D@std@@@std@@YA$$QAV?$allocator@D@0@AAV10@@Z DD 019930522H
	DD	00H
	DD	00H
	DD	2 DUP(00H)
	DD	2 DUP(00H)
	DD	00H
	DD	05H
xdata$x	ENDS
;	COMDAT xdata$x
xdata$x	SEGMENT
__ehfuncinfo$??$?0D@?$allocator@U_Container_proxy@std@@@std@@QAE@ABV?$allocator@D@1@@Z DD 019930522H
	DD	00H
	DD	00H
	DD	2 DUP(00H)
	DD	2 DUP(00H)
	DD	00H
	DD	05H
xdata$x	ENDS
;	COMDAT xdata$x
xdata$x	SEGMENT
__ehfuncinfo$??1?$_Container_proxy_ptr12@V?$allocator@U_Container_proxy@std@@@std@@@std@@QAE@XZ DD 019930522H
	DD	00H
	DD	00H
	DD	2 DUP(00H)
	DD	2 DUP(00H)
	DD	00H
	DD	05H
xdata$x	ENDS
;	COMDAT xdata$x
xdata$x	SEGMENT
__ehfuncinfo$??$_Delete_plain_internal@V?$allocator@U_Container_proxy@std@@@std@@@std@@YAXAAV?$allocator@U_Container_proxy@std@@@0@QAU_Container_proxy@0@@Z DD 019930522H
	DD	00H
	DD	00H
	DD	2 DUP(00H)
	DD	2 DUP(00H)
	DD	00H
	DD	05H
xdata$x	ENDS
;	COMDAT xdata$x
xdata$x	SEGMENT
__ehfuncinfo$??$move@AAV?$basic_string@DU?$char_traits@D@std@@V?$allocator@D@2@@std@@@std@@YA$$QAV?$basic_string@DU?$char_traits@D@std@@V?$allocator@D@2@@0@AAV10@@Z DD 019930522H
	DD	00H
	DD	00H
	DD	2 DUP(00H)
	DD	2 DUP(00H)
	DD	00H
	DD	05H
xdata$x	ENDS
;	COMDAT xdata$x
xdata$x	SEGMENT
__ehfuncinfo$??1sentry@?$basic_ostream@DU?$char_traits@D@std@@@std@@QAE@XZ DD 019930522H
	DD	00H
	DD	00H
	DD	2 DUP(00H)
	DD	2 DUP(00H)
	DD	00H
	DD	05H
xdata$x	ENDS
;	COMDAT xdata$x
xdata$x	SEGMENT
__unwindtable$??0sentry@?$basic_ostream@DU?$char_traits@D@std@@@std@@QAE@AAV12@@Z DD 0ffffffffH
	DD	FLAT:__unwindfunclet$??0sentry@?$basic_ostream@DU?$char_traits@D@std@@@std@@QAE@AAV12@@Z$0
__ehfuncinfo$??0sentry@?$basic_ostream@DU?$char_traits@D@std@@@std@@QAE@AAV12@@Z DD 019930522H
	DD	01H
	DD	FLAT:__unwindtable$??0sentry@?$basic_ostream@DU?$char_traits@D@std@@@std@@QAE@AAV12@@Z
	DD	2 DUP(00H)
	DD	2 DUP(00H)
	DD	00H
	DD	01H
xdata$x	ENDS
;	COMDAT xdata$x
xdata$x	SEGMENT
__ehfuncinfo$??1_Sentry_base@?$basic_ostream@DU?$char_traits@D@std@@@std@@QAE@XZ DD 019930522H
	DD	00H
	DD	00H
	DD	2 DUP(00H)
	DD	2 DUP(00H)
	DD	00H
	DD	05H
xdata$x	ENDS
;	COMDAT xdata$x
xdata$x	SEGMENT
__catchsym$??$?6U?$char_traits@D@std@@@std@@YAAAV?$basic_ostream@DU?$char_traits@D@std@@@0@AAV10@PBD@Z$3 DD 040H
	DD	00H
	DD	00H
	DD	FLAT:__catch$??$?6U?$char_traits@D@std@@@std@@YAAAV?$basic_ostream@DU?$char_traits@D@std@@@0@AAV10@PBD@Z$0
__tryblocktable$??$?6U?$char_traits@D@std@@@std@@YAAAV?$basic_ostream@DU?$char_traits@D@std@@@0@AAV10@PBD@Z DD 01H
	DD	01H
	DD	02H
	DD	01H
	DD	FLAT:__catchsym$??$?6U?$char_traits@D@std@@@std@@YAAAV?$basic_ostream@DU?$char_traits@D@std@@@0@AAV10@PBD@Z$3
__unwindtable$??$?6U?$char_traits@D@std@@@std@@YAAAV?$basic_ostream@DU?$char_traits@D@std@@@0@AAV10@PBD@Z DD 0ffffffffH
	DD	FLAT:__unwindfunclet$??$?6U?$char_traits@D@std@@@std@@YAAAV?$basic_ostream@DU?$char_traits@D@std@@@0@AAV10@PBD@Z$2
	DD	00H
	DD	00H
	DD	00H
	DD	00H
__ehfuncinfo$??$?6U?$char_traits@D@std@@@std@@YAAAV?$basic_ostream@DU?$char_traits@D@std@@@0@AAV10@PBD@Z DD 019930522H
	DD	03H
	DD	FLAT:__unwindtable$??$?6U?$char_traits@D@std@@@std@@YAAAV?$basic_ostream@DU?$char_traits@D@std@@@0@AAV10@PBD@Z
	DD	01H
	DD	FLAT:__tryblocktable$??$?6U?$char_traits@D@std@@@std@@YAAAV?$basic_ostream@DU?$char_traits@D@std@@@0@AAV10@PBD@Z
	DD	2 DUP(00H)
	DD	00H
	DD	01H
xdata$x	ENDS
;	COMDAT xdata$x
xdata$x	SEGMENT
__unwindtable$??$?HDU?$char_traits@D@std@@V?$allocator@D@1@@std@@YA?AV?$basic_string@DU?$char_traits@D@std@@V?$allocator@D@2@@0@ABV10@QBD@Z DD 0ffffffffH
	DD	FLAT:__unwindfunclet$??$?HDU?$char_traits@D@std@@V?$allocator@D@1@@std@@YA?AV?$basic_string@DU?$char_traits@D@std@@V?$allocator@D@2@@0@ABV10@QBD@Z$0
__ehfuncinfo$??$?HDU?$char_traits@D@std@@V?$allocator@D@1@@std@@YA?AV?$basic_string@DU?$char_traits@D@std@@V?$allocator@D@2@@0@ABV10@QBD@Z DD 019930522H
	DD	01H
	DD	FLAT:__unwindtable$??$?HDU?$char_traits@D@std@@V?$allocator@D@1@@std@@YA?AV?$basic_string@DU?$char_traits@D@std@@V?$allocator@D@2@@0@ABV10@QBD@Z
	DD	2 DUP(00H)
	DD	2 DUP(00H)
	DD	00H
	DD	01H
xdata$x	ENDS
;	COMDAT xdata$x
xdata$x	SEGMENT
__ehfuncinfo$_main DD 019930522H
	DD	05H
	DD	FLAT:__unwindtable$_main
	DD	2 DUP(00H)
	DD	2 DUP(00H)
	DD	00H
	DD	01H
__unwindtable$_main DD 0ffffffffH
	DD	FLAT:__unwindfunclet$_main$0
	DD	00H
	DD	FLAT:__unwindfunclet$_main$1
	DD	01H
	DD	FLAT:__unwindfunclet$_main$2
	DD	02H
	DD	FLAT:__unwindfunclet$_main$3
	DD	01H
	DD	FLAT:__unwindfunclet$_main$3
xdata$x	ENDS
;	COMDAT xdata$x
xdata$x	SEGMENT
__ehfuncinfo$?_Get_first@?$_Compressed_pair@V?$allocator@D@std@@V?$_String_val@U?$_Simple_types@D@std@@@2@$00@std@@QBEABV?$allocator@D@2@XZ DD 019930522H
	DD	00H
	DD	00H
	DD	2 DUP(00H)
	DD	2 DUP(00H)
	DD	00H
	DD	05H
xdata$x	ENDS
;	COMDAT xdata$x
xdata$x	SEGMENT
__ehfuncinfo$?_Get_first@?$_Compressed_pair@V?$allocator@D@std@@V?$_String_val@U?$_Simple_types@D@std@@@2@$00@std@@QAEAAV?$allocator@D@2@XZ DD 019930522H
	DD	00H
	DD	00H
	DD	2 DUP(00H)
	DD	2 DUP(00H)
	DD	00H
	DD	05H
xdata$x	ENDS
;	COMDAT xdata$x
xdata$x	SEGMENT
__ehfuncinfo$?_Getal@?$basic_string@DU?$char_traits@D@std@@V?$allocator@D@2@@std@@ABEABV?$allocator@D@2@XZ DD 019930522H
	DD	00H
	DD	00H
	DD	2 DUP(00H)
	DD	2 DUP(00H)
	DD	00H
	DD	05H
xdata$x	ENDS
;	COMDAT xdata$x
xdata$x	SEGMENT
__ehfuncinfo$?_Getal@?$basic_string@DU?$char_traits@D@std@@V?$allocator@D@2@@std@@AAEAAV?$allocator@D@2@XZ DD 019930522H
	DD	00H
	DD	00H
	DD	2 DUP(00H)
	DD	2 DUP(00H)
	DD	00H
	DD	05H
xdata$x	ENDS
;	COMDAT xdata$x
xdata$x	SEGMENT
__ehfuncinfo$?_Tidy_deallocate@?$basic_string@DU?$char_traits@D@std@@V?$allocator@D@2@@std@@AAEXXZ DD 019930522H
	DD	00H
	DD	00H
	DD	2 DUP(00H)
	DD	2 DUP(00H)
	DD	00H
	DD	05H
xdata$x	ENDS
;	COMDAT xdata$x
xdata$x	SEGMENT
__ehfuncinfo$?_Tidy_init@?$basic_string@DU?$char_traits@D@std@@V?$allocator@D@2@@std@@AAEXXZ DD 019930522H
	DD	00H
	DD	00H
	DD	2 DUP(00H)
	DD	2 DUP(00H)
	DD	00H
	DD	05H
xdata$x	ENDS
;	COMDAT xdata$x
xdata$x	SEGMENT
__ehfuncinfo$?_Calculate_growth@?$basic_string@DU?$char_traits@D@std@@V?$allocator@D@2@@std@@ABEII@Z DD 019930522H
	DD	00H
	DD	00H
	DD	2 DUP(00H)
	DD	2 DUP(00H)
	DD	00H
	DD	05H
xdata$x	ENDS
;	COMDAT xdata$x
xdata$x	SEGMENT
__ehfuncinfo$?_Calculate_growth@?$basic_string@DU?$char_traits@D@std@@V?$allocator@D@2@@std@@CAIIII@Z DD 019930522H
	DD	00H
	DD	00H
	DD	2 DUP(00H)
	DD	2 DUP(00H)
	DD	00H
	DD	05H
xdata$x	ENDS
;	COMDAT xdata$x
xdata$x	SEGMENT
__ehfuncinfo$?max_size@?$basic_string@DU?$char_traits@D@std@@V?$allocator@D@2@@std@@QBEIXZ DD 019930522H
	DD	00H
	DD	00H
	DD	2 DUP(00H)
	DD	2 DUP(00H)
	DD	00H
	DD	05H
xdata$x	ENDS
;	COMDAT xdata$x
xdata$x	SEGMENT
__ehfuncinfo$?size@?$basic_string@DU?$char_traits@D@std@@V?$allocator@D@2@@std@@QBEIXZ DD 019930522H
	DD	00H
	DD	00H
	DD	2 DUP(00H)
	DD	2 DUP(00H)
	DD	00H
	DD	05H
xdata$x	ENDS
;	COMDAT xdata$x
xdata$x	SEGMENT
__ehfuncinfo$?data@?$basic_string@DU?$char_traits@D@std@@V?$allocator@D@2@@std@@QBEPBDXZ DD 019930522H
	DD	00H
	DD	00H
	DD	2 DUP(00H)
	DD	2 DUP(00H)
	DD	00H
	DD	05H
xdata$x	ENDS
;	COMDAT xdata$x
xdata$x	SEGMENT
__ehfuncinfo$??1?$basic_string@DU?$char_traits@D@std@@V?$allocator@D@2@@std@@QAE@XZ DD 019930522H
	DD	00H
	DD	00H
	DD	2 DUP(00H)
	DD	2 DUP(00H)
	DD	00H
	DD	05H
xdata$x	ENDS
;	COMDAT xdata$x
xdata$x	SEGMENT
__ehfuncinfo$?_Take_contents@?$basic_string@DU?$char_traits@D@std@@V?$allocator@D@2@@std@@AAEXAAV12@U?$integral_constant@_N$00@2@@Z DD 019930522H
	DD	00H
	DD	00H
	DD	2 DUP(00H)
	DD	2 DUP(00H)
	DD	00H
	DD	05H
xdata$x	ENDS
;	COMDAT xdata$x
xdata$x	SEGMENT
__ehfuncinfo$?_Memcpy_val_from@?$basic_string@DU?$char_traits@D@std@@V?$allocator@D@2@@std@@AAEXABV12@@Z DD 019930522H
	DD	00H
	DD	00H
	DD	2 DUP(00H)
	DD	2 DUP(00H)
	DD	00H
	DD	05H
xdata$x	ENDS
;	COMDAT xdata$x
xdata$x	SEGMENT
__ehfuncinfo$??0?$basic_string@DU?$char_traits@D@std@@V?$allocator@D@2@@std@@QAE@$$QAV01@@Z DD 019930522H
	DD	00H
	DD	00H
	DD	2 DUP(00H)
	DD	2 DUP(00H)
	DD	00H
	DD	05H
xdata$x	ENDS
;	COMDAT xdata$x
xdata$x	SEGMENT
__unwindtable$??0?$basic_string@DU?$char_traits@D@std@@V?$allocator@D@2@@std@@QAE@QBD@Z DD 0ffffffffH
	DD	FLAT:__unwindfunclet$??0?$basic_string@DU?$char_traits@D@std@@V?$allocator@D@2@@std@@QAE@QBD@Z$0
	DD	00H
	DD	FLAT:__unwindfunclet$??0?$basic_string@DU?$char_traits@D@std@@V?$allocator@D@2@@std@@QAE@QBD@Z$1
__ehfuncinfo$??0?$basic_string@DU?$char_traits@D@std@@V?$allocator@D@2@@std@@QAE@QBD@Z DD 019930522H
	DD	02H
	DD	FLAT:__unwindtable$??0?$basic_string@DU?$char_traits@D@std@@V?$allocator@D@2@@std@@QAE@QBD@Z
	DD	2 DUP(00H)
	DD	2 DUP(00H)
	DD	00H
	DD	01H
xdata$x	ENDS
;	COMDAT xdata$x
xdata$x	SEGMENT
__ehfuncinfo$??0?$basic_string@DU?$char_traits@D@std@@V?$allocator@D@2@@std@@QAE@XZ DD 019930522H
	DD	00H
	DD	00H
	DD	2 DUP(00H)
	DD	2 DUP(00H)
	DD	00H
	DD	05H
xdata$x	ENDS
;	COMDAT xdata$x
xdata$x	SEGMENT
__ehfuncinfo$??1_Bxty@?$_String_val@U?$_Simple_types@D@std@@@std@@QAE@XZ DD 019930522H
	DD	00H
	DD	00H
	DD	2 DUP(00H)
	DD	2 DUP(00H)
	DD	00H
	DD	05H
xdata$x	ENDS
;	COMDAT xdata$x
xdata$x	SEGMENT
__ehfuncinfo$?max_size@?$_Default_allocator_traits@V?$allocator@D@std@@@std@@SAIABV?$allocator@D@2@@Z DD 019930522H
	DD	00H
	DD	00H
	DD	2 DUP(00H)
	DD	2 DUP(00H)
	DD	00H
	DD	05H
xdata$x	ENDS
;	COMDAT xdata$x
xdata$x	SEGMENT
__ehfuncinfo$??0?$allocator@D@std@@QAE@XZ DD 019930522H
	DD	00H
	DD	00H
	DD	2 DUP(00H)
	DD	2 DUP(00H)
	DD	00H
	DD	05H
xdata$x	ENDS
;	COMDAT xdata$x
xdata$x	SEGMENT
__ehfuncinfo$??$_Min_value@I@std@@YAABIABI0@Z DD 019930522H
	DD	00H
	DD	00H
	DD	2 DUP(00H)
	DD	2 DUP(00H)
	DD	00H
	DD	05H
xdata$x	ENDS
;	COMDAT xdata$x
xdata$x	SEGMENT
__ehfuncinfo$?eof@?$_Narrow_char_traits@DH@std@@SAHXZ DD 019930522H
	DD	00H
	DD	00H
	DD	2 DUP(00H)
	DD	2 DUP(00H)
	DD	00H
	DD	05H
xdata$x	ENDS
;	COMDAT xdata$x
xdata$x	SEGMENT
__ehfuncinfo$?eq_int_type@?$_Narrow_char_traits@DH@std@@SA_NABH0@Z DD 019930522H
	DD	00H
	DD	00H
	DD	2 DUP(00H)
	DD	2 DUP(00H)
	DD	00H
	DD	05H
xdata$x	ENDS
;	COMDAT xdata$x
xdata$x	SEGMENT
__ehfuncinfo$?assign@?$_Narrow_char_traits@DH@std@@SAXAADABD@Z DD 019930522H
	DD	00H
	DD	00H
	DD	2 DUP(00H)
	DD	2 DUP(00H)
	DD	00H
	DD	05H
xdata$x	ENDS
;	COMDAT xdata$x
xdata$x	SEGMENT
__ehfuncinfo$?move@?$_Narrow_char_traits@DH@std@@SAPADQADQBDI@Z DD 019930522H
	DD	00H
	DD	00H
	DD	2 DUP(00H)
	DD	2 DUP(00H)
	DD	00H
	DD	05H
xdata$x	ENDS
;	COMDAT xdata$x
xdata$x	SEGMENT
__ehfuncinfo$?copy@?$_Narrow_char_traits@DH@std@@SAPADQADQBDI@Z DD 019930522H
	DD	00H
	DD	00H
	DD	2 DUP(00H)
	DD	2 DUP(00H)
	DD	00H
	DD	05H
xdata$x	ENDS
;	COMDAT xdata$x
xdata$x	SEGMENT
__ehfuncinfo$?length@?$_Narrow_char_traits@DH@std@@SAIQBD@Z DD 019930522H
	DD	00H
	DD	00H
	DD	2 DUP(00H)
	DD	2 DUP(00H)
	DD	00H
	DD	05H
xdata$x	ENDS
;	COMDAT xdata$x
xdata$x	SEGMENT
__ehfuncinfo$??$addressof@U_Container_base12@std@@@std@@YAPAU_Container_base12@0@AAU10@@Z DD 019930522H
	DD	00H
	DD	00H
	DD	2 DUP(00H)
	DD	2 DUP(00H)
	DD	00H
	DD	05H
xdata$x	ENDS
;	COMDAT xdata$x
xdata$x	SEGMENT
__ehfuncinfo$?_Release@_Basic_container_proxy_ptr12@std@@QAEXXZ DD 019930522H
	DD	00H
	DD	00H
	DD	2 DUP(00H)
	DD	2 DUP(00H)
	DD	00H
	DD	05H
xdata$x	ENDS
;	COMDAT xdata$x
xdata$x	SEGMENT
__ehfuncinfo$??$_Construct_in_place@U_Container_proxy@std@@PAU_Container_base12@2@@std@@YAXAAU_Container_proxy@0@$$QAPAU_Container_base12@0@@Z DD 019930522H
	DD	00H
	DD	00H
	DD	2 DUP(00H)
	DD	2 DUP(00H)
	DD	00H
	DD	05H
xdata$x	ENDS
;	COMDAT xdata$x
xdata$x	SEGMENT
__ehfuncinfo$?_Swap_proxy_and_iterators@_Container_base12@std@@QAEXAAU12@@Z DD 019930522H
	DD	00H
	DD	00H
	DD	2 DUP(00H)
	DD	2 DUP(00H)
	DD	00H
	DD	05H
xdata$x	ENDS
;	COMDAT xdata$x
xdata$x	SEGMENT
__ehfuncinfo$?_Orphan_all@_Container_base12@std@@QAEXXZ DD 019930522H
	DD	00H
	DD	00H
	DD	2 DUP(00H)
	DD	2 DUP(00H)
	DD	00H
	DD	05H
xdata$x	ENDS
;	COMDAT xdata$x
xdata$x	SEGMENT
__ehfuncinfo$??0_Container_proxy@std@@QAE@PAU_Container_base12@1@@Z DD 019930522H
	DD	00H
	DD	00H
	DD	2 DUP(00H)
	DD	2 DUP(00H)
	DD	00H
	DD	05H
xdata$x	ENDS
;	COMDAT xdata$x
xdata$x	SEGMENT
__ehfuncinfo$??$_Convert_size@I@std@@YAII@Z DD 019930522H
	DD	00H
	DD	00H
	DD	2 DUP(00H)
	DD	2 DUP(00H)
	DD	00H
	DD	05H
xdata$x	ENDS
;	COMDAT xdata$x
xdata$x	SEGMENT
__ehfuncinfo$?max@?$numeric_limits@H@std@@SAHXZ DD 019930522H
	DD	00H
	DD	00H
	DD	2 DUP(00H)
	DD	2 DUP(00H)
	DD	00H
	DD	05H
xdata$x	ENDS
;	COMDAT xdata$x
xdata$x	SEGMENT
__ehfuncinfo$??0bad_array_new_length@std@@QAE@XZ DD 019930522H
	DD	00H
	DD	00H
	DD	2 DUP(00H)
	DD	2 DUP(00H)
	DD	00H
	DD	05H
xdata$x	ENDS
;	COMDAT xdata$x
xdata$x	SEGMENT
__ehfuncinfo$??0bad_alloc@std@@AAE@QBD@Z DD 019930522H
	DD	00H
	DD	00H
	DD	2 DUP(00H)
	DD	2 DUP(00H)
	DD	00H
	DD	05H
xdata$x	ENDS
;	COMDAT xdata$x
xdata$x	SEGMENT
__ehfuncinfo$??1exception@std@@UAE@XZ DD 019930522H
	DD	00H
	DD	00H
	DD	2 DUP(00H)
	DD	2 DUP(00H)
	DD	00H
	DD	05H
xdata$x	ENDS
;	COMDAT xdata$x
xdata$x	SEGMENT
__ehfuncinfo$??0exception@std@@QAE@ABV01@@Z DD 019930522H
	DD	00H
	DD	00H
	DD	2 DUP(00H)
	DD	2 DUP(00H)
	DD	00H
	DD	05H
xdata$x	ENDS
;	COMDAT xdata$x
xdata$x	SEGMENT
__ehfuncinfo$??0exception@std@@QAE@QBDH@Z DD 019930522H
	DD	00H
	DD	00H
	DD	2 DUP(00H)
	DD	2 DUP(00H)
	DD	00H
	DD	05H
xdata$x	ENDS
;	COMDAT xdata$x
xdata$x	SEGMENT
__ehfuncinfo$??2@YAPAXIPAX@Z DD 019930522H
	DD	00H
	DD	00H
	DD	2 DUP(00H)
	DD	2 DUP(00H)
	DD	00H
	DD	05H
xdata$x	ENDS
; Function compile flags: /Odt
;	COMDAT __JustMyCode_Default
_TEXT	SEGMENT
__JustMyCode_Default PROC				; COMDAT
  00000	55		 push	 ebp
  00001	8b ec		 mov	 ebp, esp
  00003	5d		 pop	 ebp
  00004	c3		 ret	 0
__JustMyCode_Default ENDP
_TEXT	ENDS
; Function compile flags: /Odtp /RTCsu /ZI
; File C:\Program Files (x86)\Microsoft Visual Studio\2019\Community\VC\Tools\MSVC\14.23.28105\include\xmemory
;	COMDAT ?deallocate@?$_Default_allocator_traits@V?$allocator@U_Container_proxy@std@@@std@@@std@@SAXAAV?$allocator@U_Container_proxy@std@@@2@QAU_Container_proxy@2@I@Z
_TEXT	SEGMENT
___formal$ = 8						; size = 4
__Ptr$ = 12						; size = 4
__Count$ = 16						; size = 4
?deallocate@?$_Default_allocator_traits@V?$allocator@U_Container_proxy@std@@@std@@@std@@SAXAAV?$allocator@U_Container_proxy@std@@@2@QAU_Container_proxy@2@I@Z PROC ; std::_Default_allocator_traits<std::allocator<std::_Container_proxy> >::deallocate, COMDAT

; 751  :     static void deallocate(_Alloc&, const pointer _Ptr, const size_type _Count) {

  00000	55		 push	 ebp
  00001	8b ec		 mov	 ebp, esp
  00003	81 ec c0 00 00
	00		 sub	 esp, 192		; 000000c0H
  00009	53		 push	 ebx
  0000a	56		 push	 esi
  0000b	57		 push	 edi
  0000c	8d bd 40 ff ff
	ff		 lea	 edi, DWORD PTR [ebp-192]
  00012	b9 30 00 00 00	 mov	 ecx, 48			; 00000030H
  00017	b8 cc cc cc cc	 mov	 eax, -858993460		; ccccccccH
  0001c	f3 ab		 rep stosd
  0001e	b9 00 00 00 00	 mov	 ecx, OFFSET __DB4EB944_xmemory
  00023	e8 00 00 00 00	 call	 @__CheckForDebuggerJustMyCode@4

; 752  :         // no overflow check on the following multiply; we assume _Allocate did that check
; 753  :         _Deallocate<_New_alignof<value_type>>(_Ptr, sizeof(value_type) * _Count);

  00028	8b 45 10	 mov	 eax, DWORD PTR __Count$[ebp]
  0002b	c1 e0 03	 shl	 eax, 3
  0002e	50		 push	 eax
  0002f	8b 4d 0c	 mov	 ecx, DWORD PTR __Ptr$[ebp]
  00032	51		 push	 ecx
  00033	e8 00 00 00 00	 call	 ??$_Deallocate@$07$0A@@std@@YAXPAXI@Z ; std::_Deallocate<8,0>
  00038	83 c4 08	 add	 esp, 8

; 754  :     }

  0003b	5f		 pop	 edi
  0003c	5e		 pop	 esi
  0003d	5b		 pop	 ebx
  0003e	81 c4 c0 00 00
	00		 add	 esp, 192		; 000000c0H
  00044	3b ec		 cmp	 ebp, esp
  00046	e8 00 00 00 00	 call	 __RTC_CheckEsp
  0004b	8b e5		 mov	 esp, ebp
  0004d	5d		 pop	 ebp
  0004e	c3		 ret	 0
?deallocate@?$_Default_allocator_traits@V?$allocator@U_Container_proxy@std@@@std@@@std@@SAXAAV?$allocator@U_Container_proxy@std@@@2@QAU_Container_proxy@2@I@Z ENDP ; std::_Default_allocator_traits<std::allocator<std::_Container_proxy> >::deallocate
_TEXT	ENDS
; Function compile flags: /Odtp /RTCsu /ZI
; File C:\Program Files (x86)\Microsoft Visual Studio\2019\Community\VC\Tools\MSVC\14.23.28105\include\xstring
;	COMDAT ??$_Reallocate_grow_by@V<lambda_67d87d4aa1269033985980465fd1d824>@@$$V@?$basic_string@DU?$char_traits@D@std@@V?$allocator@D@2@@std@@AAEAAV01@IV<lambda_67d87d4aa1269033985980465fd1d824>@@@Z
_TEXT	SEGMENT
__Old_ptr$1 = -120					; size = 4
__Raw_new$ = -108					; size = 4
__New_ptr$ = -96					; size = 4
__Al$ = -84						; size = 4
__New_capacity$ = -72					; size = 4
__Old_capacity$ = -60					; size = 4
__New_size$ = -48					; size = 4
__Old_size$ = -36					; size = 4
__My_data$ = -24					; size = 4
_this$ = -12						; size = 4
__$ArrayPad$ = -4					; size = 4
__Size_increase$ = 8					; size = 4
__Fn$ = 12						; size = 1
??$_Reallocate_grow_by@V<lambda_67d87d4aa1269033985980465fd1d824>@@$$V@?$basic_string@DU?$char_traits@D@std@@V?$allocator@D@2@@std@@AAEAAV01@IV<lambda_67d87d4aa1269033985980465fd1d824>@@@Z PROC ; std::basic_string<char,std::char_traits<char>,std::allocator<char> >::_Reallocate_grow_by<<lambda_67d87d4aa1269033985980465fd1d824> >, COMDAT
; _this$ = ecx

; 4108 :     basic_string& _Reallocate_grow_by(const size_type _Size_increase, _Fty _Fn, _ArgTys... _Args) {

  00000	55		 push	 ebp
  00001	8b ec		 mov	 ebp, esp
  00003	81 ec 3c 01 00
	00		 sub	 esp, 316		; 0000013cH
  00009	53		 push	 ebx
  0000a	56		 push	 esi
  0000b	57		 push	 edi
  0000c	51		 push	 ecx
  0000d	8d bd c4 fe ff
	ff		 lea	 edi, DWORD PTR [ebp-316]
  00013	b9 4f 00 00 00	 mov	 ecx, 79			; 0000004fH
  00018	b8 cc cc cc cc	 mov	 eax, -858993460		; ccccccccH
  0001d	f3 ab		 rep stosd
  0001f	59		 pop	 ecx
  00020	a1 00 00 00 00	 mov	 eax, DWORD PTR ___security_cookie
  00025	33 c5		 xor	 eax, ebp
  00027	89 45 fc	 mov	 DWORD PTR __$ArrayPad$[ebp], eax
  0002a	89 4d f4	 mov	 DWORD PTR _this$[ebp], ecx
  0002d	b9 00 00 00 00	 mov	 ecx, OFFSET __AF9D3FD8_xstring
  00032	e8 00 00 00 00	 call	 @__CheckForDebuggerJustMyCode@4

; 4109 :         // reallocate to increase size by _Size_increase elements, new buffer prepared by
; 4110 :         // _Fn(_New_ptr, _Old_ptr, _Old_size, _Args...)
; 4111 :         auto& _My_data            = _Mypair._Myval2;

  00037	8b 45 f4	 mov	 eax, DWORD PTR _this$[ebp]
  0003a	89 45 e8	 mov	 DWORD PTR __My_data$[ebp], eax

; 4112 :         const size_type _Old_size = _My_data._Mysize;

  0003d	8b 45 e8	 mov	 eax, DWORD PTR __My_data$[ebp]
  00040	8b 48 14	 mov	 ecx, DWORD PTR [eax+20]
  00043	89 4d dc	 mov	 DWORD PTR __Old_size$[ebp], ecx

; 4113 :         if (max_size() - _Old_size < _Size_increase) {

  00046	8b 4d f4	 mov	 ecx, DWORD PTR _this$[ebp]
  00049	e8 00 00 00 00	 call	 ?max_size@?$basic_string@DU?$char_traits@D@std@@V?$allocator@D@2@@std@@QBEIXZ ; std::basic_string<char,std::char_traits<char>,std::allocator<char> >::max_size
  0004e	2b 45 dc	 sub	 eax, DWORD PTR __Old_size$[ebp]
  00051	3b 45 08	 cmp	 eax, DWORD PTR __Size_increase$[ebp]
  00054	73 05		 jae	 SHORT $LN2@Reallocate

; 4114 :             _Xlen(); // result too long

  00056	e8 00 00 00 00	 call	 ?_Xlen@?$basic_string@DU?$char_traits@D@std@@V?$allocator@D@2@@std@@CAXXZ ; std::basic_string<char,std::char_traits<char>,std::allocator<char> >::_Xlen
$LN2@Reallocate:

; 4115 :         }
; 4116 : 
; 4117 :         const size_type _New_size     = _Old_size + _Size_increase;

  0005b	8b 45 dc	 mov	 eax, DWORD PTR __Old_size$[ebp]
  0005e	03 45 08	 add	 eax, DWORD PTR __Size_increase$[ebp]
  00061	89 45 d0	 mov	 DWORD PTR __New_size$[ebp], eax

; 4118 :         const size_type _Old_capacity = _My_data._Myres;

  00064	8b 45 e8	 mov	 eax, DWORD PTR __My_data$[ebp]
  00067	8b 48 18	 mov	 ecx, DWORD PTR [eax+24]
  0006a	89 4d c4	 mov	 DWORD PTR __Old_capacity$[ebp], ecx

; 4119 :         const size_type _New_capacity = _Calculate_growth(_New_size);

  0006d	8b 45 d0	 mov	 eax, DWORD PTR __New_size$[ebp]
  00070	50		 push	 eax
  00071	8b 4d f4	 mov	 ecx, DWORD PTR _this$[ebp]
  00074	e8 00 00 00 00	 call	 ?_Calculate_growth@?$basic_string@DU?$char_traits@D@std@@V?$allocator@D@2@@std@@ABEII@Z ; std::basic_string<char,std::char_traits<char>,std::allocator<char> >::_Calculate_growth
  00079	89 45 b8	 mov	 DWORD PTR __New_capacity$[ebp], eax

; 4120 :         auto& _Al                     = _Getal();

  0007c	8b 4d f4	 mov	 ecx, DWORD PTR _this$[ebp]
  0007f	e8 00 00 00 00	 call	 ?_Getal@?$basic_string@DU?$char_traits@D@std@@V?$allocator@D@2@@std@@AAEAAV?$allocator@D@2@XZ ; std::basic_string<char,std::char_traits<char>,std::allocator<char> >::_Getal
  00084	89 45 ac	 mov	 DWORD PTR __Al$[ebp], eax

; 4121 :         const pointer _New_ptr        = _Al.allocate(_New_capacity + 1); // throws

  00087	33 c0		 xor	 eax, eax
  00089	8b 4d b8	 mov	 ecx, DWORD PTR __New_capacity$[ebp]
  0008c	83 c1 01	 add	 ecx, 1
  0008f	0f 92 c0	 setb	 al
  00092	f7 d8		 neg	 eax
  00094	0b c1		 or	 eax, ecx
  00096	50		 push	 eax
  00097	8b 4d ac	 mov	 ecx, DWORD PTR __Al$[ebp]
  0009a	e8 00 00 00 00	 call	 ?allocate@?$allocator@D@std@@QAEPADI@Z ; std::allocator<char>::allocate
  0009f	89 45 a0	 mov	 DWORD PTR __New_ptr$[ebp], eax

; 4122 :         _My_data._Orphan_all();

  000a2	8b 4d e8	 mov	 ecx, DWORD PTR __My_data$[ebp]
  000a5	e8 00 00 00 00	 call	 ?_Orphan_all@_Container_base12@std@@QAEXXZ ; std::_Container_base12::_Orphan_all

; 4123 :         _My_data._Mysize      = _New_size;

  000aa	8b 45 e8	 mov	 eax, DWORD PTR __My_data$[ebp]
  000ad	8b 4d d0	 mov	 ecx, DWORD PTR __New_size$[ebp]
  000b0	89 48 14	 mov	 DWORD PTR [eax+20], ecx

; 4124 :         _My_data._Myres       = _New_capacity;

  000b3	8b 45 e8	 mov	 eax, DWORD PTR __My_data$[ebp]
  000b6	8b 4d b8	 mov	 ecx, DWORD PTR __New_capacity$[ebp]
  000b9	89 48 18	 mov	 DWORD PTR [eax+24], ecx

; 4125 :         _Elem* const _Raw_new = _Unfancy(_New_ptr);

  000bc	8b 45 a0	 mov	 eax, DWORD PTR __New_ptr$[ebp]
  000bf	50		 push	 eax
  000c0	e8 00 00 00 00	 call	 ??$_Unfancy@D@std@@YAPADPAD@Z ; std::_Unfancy<char>
  000c5	83 c4 04	 add	 esp, 4
  000c8	89 45 94	 mov	 DWORD PTR __Raw_new$[ebp], eax

; 4126 :         if (_BUF_SIZE <= _Old_capacity) {

  000cb	83 7d c4 10	 cmp	 DWORD PTR __Old_capacity$[ebp], 16 ; 00000010H
  000cf	72 44		 jb	 SHORT $LN3@Reallocate

; 4127 :             const pointer _Old_ptr = _My_data._Bx._Ptr;

  000d1	8b 45 e8	 mov	 eax, DWORD PTR __My_data$[ebp]
  000d4	8b 48 04	 mov	 ecx, DWORD PTR [eax+4]
  000d7	89 4d 88	 mov	 DWORD PTR __Old_ptr$1[ebp], ecx

; 4128 :             _Fn(_Raw_new, _Unfancy(_Old_ptr), _Old_size, _Args...);

  000da	8b 45 dc	 mov	 eax, DWORD PTR __Old_size$[ebp]
  000dd	50		 push	 eax
  000de	8b 4d 88	 mov	 ecx, DWORD PTR __Old_ptr$1[ebp]
  000e1	51		 push	 ecx
  000e2	e8 00 00 00 00	 call	 ??$_Unfancy@D@std@@YAPADPAD@Z ; std::_Unfancy<char>
  000e7	83 c4 04	 add	 esp, 4
  000ea	50		 push	 eax
  000eb	8b 55 94	 mov	 edx, DWORD PTR __Raw_new$[ebp]
  000ee	52		 push	 edx
  000ef	8d 4d 0c	 lea	 ecx, DWORD PTR __Fn$[ebp]
  000f2	e8 00 00 00 00	 call	 ??R<lambda_67d87d4aa1269033985980465fd1d824>@@QBEXQADQBDI@Z ; <lambda_67d87d4aa1269033985980465fd1d824>::operator()

; 4129 :             _Al.deallocate(_Old_ptr, _Old_capacity + 1);

  000f7	8b 45 c4	 mov	 eax, DWORD PTR __Old_capacity$[ebp]
  000fa	83 c0 01	 add	 eax, 1
  000fd	50		 push	 eax
  000fe	8b 4d 88	 mov	 ecx, DWORD PTR __Old_ptr$1[ebp]
  00101	51		 push	 ecx
  00102	8b 4d ac	 mov	 ecx, DWORD PTR __Al$[ebp]
  00105	e8 00 00 00 00	 call	 ?deallocate@?$allocator@D@std@@QAEXQADI@Z ; std::allocator<char>::deallocate

; 4130 :             _My_data._Bx._Ptr = _New_ptr;

  0010a	8b 45 e8	 mov	 eax, DWORD PTR __My_data$[ebp]
  0010d	8b 4d a0	 mov	 ecx, DWORD PTR __New_ptr$[ebp]
  00110	89 48 04	 mov	 DWORD PTR [eax+4], ecx

; 4131 :         } else {

  00113	eb 2a		 jmp	 SHORT $LN4@Reallocate
$LN3@Reallocate:

; 4132 :             _Fn(_Raw_new, _My_data._Bx._Buf, _Old_size, _Args...);

  00115	8b 45 dc	 mov	 eax, DWORD PTR __Old_size$[ebp]
  00118	50		 push	 eax
  00119	8b 4d e8	 mov	 ecx, DWORD PTR __My_data$[ebp]
  0011c	83 c1 04	 add	 ecx, 4
  0011f	51		 push	 ecx
  00120	8b 55 94	 mov	 edx, DWORD PTR __Raw_new$[ebp]
  00123	52		 push	 edx
  00124	8d 4d 0c	 lea	 ecx, DWORD PTR __Fn$[ebp]
  00127	e8 00 00 00 00	 call	 ??R<lambda_67d87d4aa1269033985980465fd1d824>@@QBEXQADQBDI@Z ; <lambda_67d87d4aa1269033985980465fd1d824>::operator()

; 4133 :             _Construct_in_place(_My_data._Bx._Ptr, _New_ptr);

  0012c	8d 45 a0	 lea	 eax, DWORD PTR __New_ptr$[ebp]
  0012f	50		 push	 eax
  00130	8b 4d e8	 mov	 ecx, DWORD PTR __My_data$[ebp]
  00133	83 c1 04	 add	 ecx, 4
  00136	51		 push	 ecx
  00137	e8 00 00 00 00	 call	 ??$_Construct_in_place@PADABQAD@std@@YAXAAPADABQAD@Z ; std::_Construct_in_place<char *,char * const &>
  0013c	83 c4 08	 add	 esp, 8
$LN4@Reallocate:

; 4134 :         }
; 4135 : 
; 4136 :         return *this;

  0013f	8b 45 f4	 mov	 eax, DWORD PTR _this$[ebp]
$LN5@Reallocate:

; 4137 :     }

  00142	52		 push	 edx
  00143	8b cd		 mov	 ecx, ebp
  00145	50		 push	 eax
  00146	8d 15 00 00 00
	00		 lea	 edx, DWORD PTR $LN8@Reallocate
  0014c	e8 00 00 00 00	 call	 @_RTC_CheckStackVars@8
  00151	58		 pop	 eax
  00152	5a		 pop	 edx
  00153	5f		 pop	 edi
  00154	5e		 pop	 esi
  00155	5b		 pop	 ebx
  00156	8b 4d fc	 mov	 ecx, DWORD PTR __$ArrayPad$[ebp]
  00159	33 cd		 xor	 ecx, ebp
  0015b	e8 00 00 00 00	 call	 @__security_check_cookie@4
  00160	81 c4 3c 01 00
	00		 add	 esp, 316		; 0000013cH
  00166	3b ec		 cmp	 ebp, esp
  00168	e8 00 00 00 00	 call	 __RTC_CheckEsp
  0016d	8b e5		 mov	 esp, ebp
  0016f	5d		 pop	 ebp
  00170	c2 08 00	 ret	 8
  00173	90		 npad	 1
$LN8@Reallocate:
  00174	01 00 00 00	 DD	 1
  00178	00 00 00 00	 DD	 $LN7@Reallocate
$LN7@Reallocate:
  0017c	a0 ff ff ff	 DD	 -96			; ffffffa0H
  00180	04 00 00 00	 DD	 4
  00184	00 00 00 00	 DD	 $LN6@Reallocate
$LN6@Reallocate:
  00188	5f		 DB	 95			; 0000005fH
  00189	4e		 DB	 78			; 0000004eH
  0018a	65		 DB	 101			; 00000065H
  0018b	77		 DB	 119			; 00000077H
  0018c	5f		 DB	 95			; 0000005fH
  0018d	70		 DB	 112			; 00000070H
  0018e	74		 DB	 116			; 00000074H
  0018f	72		 DB	 114			; 00000072H
  00190	00		 DB	 0
??$_Reallocate_grow_by@V<lambda_67d87d4aa1269033985980465fd1d824>@@$$V@?$basic_string@DU?$char_traits@D@std@@V?$allocator@D@2@@std@@AAEAAV01@IV<lambda_67d87d4aa1269033985980465fd1d824>@@@Z ENDP ; std::basic_string<char,std::char_traits<char>,std::allocator<char> >::_Reallocate_grow_by<<lambda_67d87d4aa1269033985980465fd1d824> >
_TEXT	ENDS
; Function compile flags: /Odtp /RTCsu /ZI
; File C:\Program Files (x86)\Microsoft Visual Studio\2019\Community\VC\Tools\MSVC\14.23.28105\include\xstring
;	COMDAT ??R<lambda_67d87d4aa1269033985980465fd1d824>@@QBEXQADQBDI@Z
_TEXT	SEGMENT
_this$ = -8						; size = 4
__New_ptr$ = 8						; size = 4
__Old_ptr$ = 12						; size = 4
__Old_size$ = 16					; size = 4
??R<lambda_67d87d4aa1269033985980465fd1d824>@@QBEXQADQBDI@Z PROC ; <lambda_67d87d4aa1269033985980465fd1d824>::operator(), COMDAT
; _this$ = ecx

; 3605 :                 _Newcap - _Old_size, [](_Elem* const _New_ptr, const _Elem* const _Old_ptr, const size_type _Old_size) {

  00000	55		 push	 ebp
  00001	8b ec		 mov	 ebp, esp
  00003	81 ec cc 00 00
	00		 sub	 esp, 204		; 000000ccH
  00009	53		 push	 ebx
  0000a	56		 push	 esi
  0000b	57		 push	 edi
  0000c	51		 push	 ecx
  0000d	8d bd 34 ff ff
	ff		 lea	 edi, DWORD PTR [ebp-204]
  00013	b9 33 00 00 00	 mov	 ecx, 51			; 00000033H
  00018	b8 cc cc cc cc	 mov	 eax, -858993460		; ccccccccH
  0001d	f3 ab		 rep stosd
  0001f	59		 pop	 ecx
  00020	89 4d f8	 mov	 DWORD PTR _this$[ebp], ecx
  00023	b9 00 00 00 00	 mov	 ecx, OFFSET __AF9D3FD8_xstring
  00028	e8 00 00 00 00	 call	 @__CheckForDebuggerJustMyCode@4

; 3606 :                     _Traits::copy(_New_ptr, _Old_ptr, _Old_size + 1);

  0002d	8b 45 10	 mov	 eax, DWORD PTR __Old_size$[ebp]
  00030	83 c0 01	 add	 eax, 1
  00033	50		 push	 eax
  00034	8b 4d 0c	 mov	 ecx, DWORD PTR __Old_ptr$[ebp]
  00037	51		 push	 ecx
  00038	8b 55 08	 mov	 edx, DWORD PTR __New_ptr$[ebp]
  0003b	52		 push	 edx
  0003c	e8 00 00 00 00	 call	 ?copy@?$_Narrow_char_traits@DH@std@@SAPADQADQBDI@Z ; std::_Narrow_char_traits<char,int>::copy
  00041	83 c4 0c	 add	 esp, 12			; 0000000cH

; 3607 :                 });

  00044	5f		 pop	 edi
  00045	5e		 pop	 esi
  00046	5b		 pop	 ebx
  00047	81 c4 cc 00 00
	00		 add	 esp, 204		; 000000ccH
  0004d	3b ec		 cmp	 ebp, esp
  0004f	e8 00 00 00 00	 call	 __RTC_CheckEsp
  00054	8b e5		 mov	 esp, ebp
  00056	5d		 pop	 ebp
  00057	c2 0c 00	 ret	 12			; 0000000cH
??R<lambda_67d87d4aa1269033985980465fd1d824>@@QBEXQADQBDI@Z ENDP ; <lambda_67d87d4aa1269033985980465fd1d824>::operator()
_TEXT	ENDS
; Function compile flags: /Odtp /RTCsu /ZI
; File C:\Program Files (x86)\Microsoft Visual Studio\2019\Community\VC\Tools\MSVC\14.23.28105\include\xmemory
;	COMDAT ??$_Allocate_manually_vector_aligned@U_Default_allocate_traits@std@@@std@@YAPAXI@Z
_TEXT	SEGMENT
__Ptr$ = -32						; size = 4
__Ptr_container$ = -20					; size = 4
__Block_size$ = -8					; size = 4
__Bytes$ = 8						; size = 4
??$_Allocate_manually_vector_aligned@U_Default_allocate_traits@std@@@std@@YAPAXI@Z PROC ; std::_Allocate_manually_vector_aligned<std::_Default_allocate_traits>, COMDAT

; 83   : _DECLSPEC_ALLOCATOR void* _Allocate_manually_vector_aligned(const size_t _Bytes) {

  00000	55		 push	 ebp
  00001	8b ec		 mov	 ebp, esp
  00003	81 ec e4 00 00
	00		 sub	 esp, 228		; 000000e4H
  00009	53		 push	 ebx
  0000a	56		 push	 esi
  0000b	57		 push	 edi
  0000c	8d bd 1c ff ff
	ff		 lea	 edi, DWORD PTR [ebp-228]
  00012	b9 39 00 00 00	 mov	 ecx, 57			; 00000039H
  00017	b8 cc cc cc cc	 mov	 eax, -858993460		; ccccccccH
  0001c	f3 ab		 rep stosd
  0001e	b9 00 00 00 00	 mov	 ecx, OFFSET __DB4EB944_xmemory
  00023	e8 00 00 00 00	 call	 @__CheckForDebuggerJustMyCode@4

; 84   :     // allocate _Bytes manually aligned to at least _Big_allocation_alignment
; 85   :     const size_t _Block_size = _Non_user_size + _Bytes;

  00028	8b 45 08	 mov	 eax, DWORD PTR __Bytes$[ebp]
  0002b	83 c0 27	 add	 eax, 39			; 00000027H
  0002e	89 45 f8	 mov	 DWORD PTR __Block_size$[ebp], eax

; 86   :     if (_Block_size <= _Bytes) {

  00031	8b 45 f8	 mov	 eax, DWORD PTR __Block_size$[ebp]
  00034	3b 45 08	 cmp	 eax, DWORD PTR __Bytes$[ebp]
  00037	77 05		 ja	 SHORT $LN8@Allocate_m

; 87   :         _Throw_bad_array_new_length(); // add overflow

  00039	e8 00 00 00 00	 call	 ?_Throw_bad_array_new_length@std@@YAXXZ ; std::_Throw_bad_array_new_length
$LN8@Allocate_m:

; 88   :     }
; 89   : 
; 90   :     const uintptr_t _Ptr_container = reinterpret_cast<uintptr_t>(_Traits::_Allocate(_Block_size));

  0003e	8b 45 f8	 mov	 eax, DWORD PTR __Block_size$[ebp]
  00041	50		 push	 eax
  00042	e8 00 00 00 00	 call	 ?_Allocate@_Default_allocate_traits@std@@SAPAXI@Z ; std::_Default_allocate_traits::_Allocate
  00047	83 c4 04	 add	 esp, 4
  0004a	89 45 ec	 mov	 DWORD PTR __Ptr_container$[ebp], eax
$LN4@Allocate_m:

; 91   :     _STL_VERIFY(_Ptr_container != 0, "invalid argument"); // validate even in release since we're doing p[-1]

  0004d	83 7d ec 00	 cmp	 DWORD PTR __Ptr_container$[ebp], 0
  00051	74 02		 je	 SHORT $LN7@Allocate_m
  00053	eb 56		 jmp	 SHORT $LN2@Allocate_m
$LN7@Allocate_m:
  00055	8b f4		 mov	 esi, esp
  00057	68 00 00 00 00	 push	 OFFSET ??_C@_0BB@FCMFBGOM@invalid?5argument@
  0005c	68 00 00 00 00	 push	 OFFSET ??_C@_02DKCKIIND@?$CFs@
  00061	6a 00		 push	 0
  00063	6a 5b		 push	 91			; 0000005bH
  00065	68 00 00 00 00	 push	 OFFSET ??_C@_0GI@FJIKDGOA@C?3?2Program?5Files?5?$CIx86?$CJ?2Microsof@
  0006a	6a 02		 push	 2
  0006c	ff 15 00 00 00
	00		 call	 DWORD PTR __imp___CrtDbgReport
  00072	83 c4 18	 add	 esp, 24			; 00000018H
  00075	3b f4		 cmp	 esi, esp
  00077	e8 00 00 00 00	 call	 __RTC_CheckEsp
  0007c	83 f8 01	 cmp	 eax, 1
  0007f	75 01		 jne	 SHORT $LN12@Allocate_m
  00081	cc		 int	 3
$LN12@Allocate_m:
  00082	8b f4		 mov	 esi, esp
  00084	6a 00		 push	 0
  00086	6a 5b		 push	 91			; 0000005bH
  00088	68 00 00 00 00	 push	 OFFSET ??_C@_1NA@CDBIFGMM@?$AAC?$AA?3?$AA?2?$AAP?$AAr?$AAo?$AAg?$AAr?$AAa?$AAm?$AA?5?$AAF?$AAi?$AAl?$AAe@
  0008d	68 00 00 00 00	 push	 OFFSET ??_C@_1EO@GFNCMDLA@?$AAs?$AAt?$AAd?$AA?3?$AA?3?$AA_?$AAA?$AAl?$AAl?$AAo?$AAc?$AAa?$AAt?$AAe?$AA_@
  00092	68 00 00 00 00	 push	 OFFSET ??_C@_1CG@JNLFBNGN@?$AA?$CC?$AAi?$AAn?$AAv?$AAa?$AAl?$AAi?$AAd?$AA?5?$AAa?$AAr?$AAg?$AAu?$AAm?$AAe@
  00097	ff 15 00 00 00
	00		 call	 DWORD PTR __imp___invalid_parameter
  0009d	83 c4 14	 add	 esp, 20			; 00000014H
  000a0	3b f4		 cmp	 esi, esp
  000a2	e8 00 00 00 00	 call	 __RTC_CheckEsp
  000a7	33 c0		 xor	 eax, eax
  000a9	75 aa		 jne	 SHORT $LN7@Allocate_m
$LN2@Allocate_m:
  000ab	33 c0		 xor	 eax, eax
  000ad	75 9e		 jne	 SHORT $LN4@Allocate_m

; 92   :     void* const _Ptr = reinterpret_cast<void*>((_Ptr_container + _Non_user_size) & ~(_Big_allocation_alignment - 1));

  000af	8b 45 ec	 mov	 eax, DWORD PTR __Ptr_container$[ebp]
  000b2	83 c0 27	 add	 eax, 39			; 00000027H
  000b5	83 e0 e0	 and	 eax, -32		; ffffffe0H
  000b8	89 45 e0	 mov	 DWORD PTR __Ptr$[ebp], eax

; 93   :     static_cast<uintptr_t*>(_Ptr)[-1] = _Ptr_container;

  000bb	b8 04 00 00 00	 mov	 eax, 4
  000c0	6b c8 ff	 imul	 ecx, eax, -1
  000c3	8b 55 e0	 mov	 edx, DWORD PTR __Ptr$[ebp]
  000c6	8b 45 ec	 mov	 eax, DWORD PTR __Ptr_container$[ebp]
  000c9	89 04 0a	 mov	 DWORD PTR [edx+ecx], eax

; 94   : 
; 95   : #ifdef _DEBUG
; 96   :     static_cast<uintptr_t*>(_Ptr)[-2] = _Big_allocation_sentinel;

  000cc	b8 04 00 00 00	 mov	 eax, 4
  000d1	6b c8 fe	 imul	 ecx, eax, -2
  000d4	8b 55 e0	 mov	 edx, DWORD PTR __Ptr$[ebp]
  000d7	c7 04 0a fa fa
	fa fa		 mov	 DWORD PTR [edx+ecx], -84215046 ; fafafafaH

; 97   : #endif // _DEBUG
; 98   :     return _Ptr;

  000de	8b 45 e0	 mov	 eax, DWORD PTR __Ptr$[ebp]
$LN11@Allocate_m:

; 99   : }

  000e1	5f		 pop	 edi
  000e2	5e		 pop	 esi
  000e3	5b		 pop	 ebx
  000e4	81 c4 e4 00 00
	00		 add	 esp, 228		; 000000e4H
  000ea	3b ec		 cmp	 ebp, esp
  000ec	e8 00 00 00 00	 call	 __RTC_CheckEsp
  000f1	8b e5		 mov	 esp, ebp
  000f3	5d		 pop	 ebp
  000f4	c3		 ret	 0
??$_Allocate_manually_vector_aligned@U_Default_allocate_traits@std@@@std@@YAPAXI@Z ENDP ; std::_Allocate_manually_vector_aligned<std::_Default_allocate_traits>
_TEXT	ENDS
; Function compile flags: /Odtp /RTCsu /ZI
; File C:\Program Files (x86)\Microsoft Visual Studio\2019\Community\VC\Tools\MSVC\14.23.28105\include\type_traits
;	COMDAT ??$forward@ABQAD@std@@YAABQADABQAD@Z
_TEXT	SEGMENT
__$EHRec$ = -12						; size = 12
__Arg$ = 8						; size = 4
??$forward@ABQAD@std@@YAABQADABQAD@Z PROC		; std::forward<char * const &>, COMDAT

; 1420 :     remove_reference_t<_Ty>& _Arg) noexcept { // forward an lvalue as either an lvalue or an rvalue

  00000	55		 push	 ebp
  00001	8b ec		 mov	 ebp, esp
  00003	6a ff		 push	 -1
  00005	68 00 00 00 00	 push	 __ehhandler$??$forward@ABQAD@std@@YAABQADABQAD@Z
  0000a	64 a1 00 00 00
	00		 mov	 eax, DWORD PTR fs:0
  00010	50		 push	 eax
  00011	81 ec c0 00 00
	00		 sub	 esp, 192		; 000000c0H
  00017	53		 push	 ebx
  00018	56		 push	 esi
  00019	57		 push	 edi
  0001a	8d bd 34 ff ff
	ff		 lea	 edi, DWORD PTR [ebp-204]
  00020	b9 30 00 00 00	 mov	 ecx, 48			; 00000030H
  00025	b8 cc cc cc cc	 mov	 eax, -858993460		; ccccccccH
  0002a	f3 ab		 rep stosd
  0002c	a1 00 00 00 00	 mov	 eax, DWORD PTR ___security_cookie
  00031	33 c5		 xor	 eax, ebp
  00033	50		 push	 eax
  00034	8d 45 f4	 lea	 eax, DWORD PTR __$EHRec$[ebp]
  00037	64 a3 00 00 00
	00		 mov	 DWORD PTR fs:0, eax
  0003d	b9 00 00 00 00	 mov	 ecx, OFFSET __FFC6471F_type_traits
  00042	e8 00 00 00 00	 call	 @__CheckForDebuggerJustMyCode@4

; 1421 :     return static_cast<_Ty&&>(_Arg);

  00047	8b 45 08	 mov	 eax, DWORD PTR __Arg$[ebp]

; 1422 : }

  0004a	8b 4d f4	 mov	 ecx, DWORD PTR __$EHRec$[ebp]
  0004d	64 89 0d 00 00
	00 00		 mov	 DWORD PTR fs:0, ecx
  00054	59		 pop	 ecx
  00055	5f		 pop	 edi
  00056	5e		 pop	 esi
  00057	5b		 pop	 ebx
  00058	81 c4 cc 00 00
	00		 add	 esp, 204		; 000000ccH
  0005e	3b ec		 cmp	 ebp, esp
  00060	e8 00 00 00 00	 call	 __RTC_CheckEsp
  00065	8b e5		 mov	 esp, ebp
  00067	5d		 pop	 ebp
  00068	c3		 ret	 0
_TEXT	ENDS
;	COMDAT text$x
text$x	SEGMENT
__ehhandler$??$forward@ABQAD@std@@YAABQADABQAD@Z:
  00000	8b 54 24 08	 mov	 edx, DWORD PTR [esp+8]
  00004	8d 42 0c	 lea	 eax, DWORD PTR [edx+12]
  00007	8b 8a 30 ff ff
	ff		 mov	 ecx, DWORD PTR [edx-208]
  0000d	33 c8		 xor	 ecx, eax
  0000f	e8 00 00 00 00	 call	 @__security_check_cookie@4
  00014	b8 00 00 00 00	 mov	 eax, OFFSET __ehfuncinfo$??$forward@ABQAD@std@@YAABQADABQAD@Z
  00019	e9 00 00 00 00	 jmp	 ___CxxFrameHandler3
text$x	ENDS
??$forward@ABQAD@std@@YAABQADABQAD@Z ENDP		; std::forward<char * const &>
; Function compile flags: /Odtp /RTCsu /ZI
; File C:\Program Files (x86)\Microsoft Visual Studio\2019\Community\VC\Tools\MSVC\14.23.28105\include\xstddef
;	COMDAT ??$addressof@PAD@std@@YAPAPADAAPAD@Z
_TEXT	SEGMENT
__$EHRec$ = -12						; size = 12
__Val$ = 8						; size = 4
??$addressof@PAD@std@@YAPAPADAAPAD@Z PROC		; std::addressof<char *>, COMDAT

; 279  : _NODISCARD constexpr _Ty* addressof(_Ty& _Val) noexcept { // return address of _Val

  00000	55		 push	 ebp
  00001	8b ec		 mov	 ebp, esp
  00003	6a ff		 push	 -1
  00005	68 00 00 00 00	 push	 __ehhandler$??$addressof@PAD@std@@YAPAPADAAPAD@Z
  0000a	64 a1 00 00 00
	00		 mov	 eax, DWORD PTR fs:0
  00010	50		 push	 eax
  00011	81 ec c0 00 00
	00		 sub	 esp, 192		; 000000c0H
  00017	53		 push	 ebx
  00018	56		 push	 esi
  00019	57		 push	 edi
  0001a	8d bd 34 ff ff
	ff		 lea	 edi, DWORD PTR [ebp-204]
  00020	b9 30 00 00 00	 mov	 ecx, 48			; 00000030H
  00025	b8 cc cc cc cc	 mov	 eax, -858993460		; ccccccccH
  0002a	f3 ab		 rep stosd
  0002c	a1 00 00 00 00	 mov	 eax, DWORD PTR ___security_cookie
  00031	33 c5		 xor	 eax, ebp
  00033	50		 push	 eax
  00034	8d 45 f4	 lea	 eax, DWORD PTR __$EHRec$[ebp]
  00037	64 a3 00 00 00
	00		 mov	 DWORD PTR fs:0, eax
  0003d	b9 00 00 00 00	 mov	 ecx, OFFSET __46C44D95_xstddef
  00042	e8 00 00 00 00	 call	 @__CheckForDebuggerJustMyCode@4

; 280  :     return __builtin_addressof(_Val);

  00047	8b 45 08	 mov	 eax, DWORD PTR __Val$[ebp]

; 281  : }

  0004a	8b 4d f4	 mov	 ecx, DWORD PTR __$EHRec$[ebp]
  0004d	64 89 0d 00 00
	00 00		 mov	 DWORD PTR fs:0, ecx
  00054	59		 pop	 ecx
  00055	5f		 pop	 edi
  00056	5e		 pop	 esi
  00057	5b		 pop	 ebx
  00058	81 c4 cc 00 00
	00		 add	 esp, 204		; 000000ccH
  0005e	3b ec		 cmp	 ebp, esp
  00060	e8 00 00 00 00	 call	 __RTC_CheckEsp
  00065	8b e5		 mov	 esp, ebp
  00067	5d		 pop	 ebp
  00068	c3		 ret	 0
_TEXT	ENDS
;	COMDAT text$x
text$x	SEGMENT
__ehhandler$??$addressof@PAD@std@@YAPAPADAAPAD@Z:
  00000	8b 54 24 08	 mov	 edx, DWORD PTR [esp+8]
  00004	8d 42 0c	 lea	 eax, DWORD PTR [edx+12]
  00007	8b 8a 30 ff ff
	ff		 mov	 ecx, DWORD PTR [edx-208]
  0000d	33 c8		 xor	 ecx, eax
  0000f	e8 00 00 00 00	 call	 @__security_check_cookie@4
  00014	b8 00 00 00 00	 mov	 eax, OFFSET __ehfuncinfo$??$addressof@PAD@std@@YAPAPADAAPAD@Z
  00019	e9 00 00 00 00	 jmp	 ___CxxFrameHandler3
text$x	ENDS
??$addressof@PAD@std@@YAPAPADAAPAD@Z ENDP		; std::addressof<char *>
; Function compile flags: /Odtp /RTCsu /ZI
; File C:\Program Files (x86)\Microsoft Visual Studio\2019\Community\VC\Tools\MSVC\14.23.28105\include\type_traits
;	COMDAT ??$forward@V?$allocator@D@std@@@std@@YA$$QAV?$allocator@D@0@AAV10@@Z
_TEXT	SEGMENT
__$EHRec$ = -12						; size = 12
__Arg$ = 8						; size = 4
??$forward@V?$allocator@D@std@@@std@@YA$$QAV?$allocator@D@0@AAV10@@Z PROC ; std::forward<std::allocator<char> >, COMDAT

; 1420 :     remove_reference_t<_Ty>& _Arg) noexcept { // forward an lvalue as either an lvalue or an rvalue

  00000	55		 push	 ebp
  00001	8b ec		 mov	 ebp, esp
  00003	6a ff		 push	 -1
  00005	68 00 00 00 00	 push	 __ehhandler$??$forward@V?$allocator@D@std@@@std@@YA$$QAV?$allocator@D@0@AAV10@@Z
  0000a	64 a1 00 00 00
	00		 mov	 eax, DWORD PTR fs:0
  00010	50		 push	 eax
  00011	81 ec c0 00 00
	00		 sub	 esp, 192		; 000000c0H
  00017	53		 push	 ebx
  00018	56		 push	 esi
  00019	57		 push	 edi
  0001a	8d bd 34 ff ff
	ff		 lea	 edi, DWORD PTR [ebp-204]
  00020	b9 30 00 00 00	 mov	 ecx, 48			; 00000030H
  00025	b8 cc cc cc cc	 mov	 eax, -858993460		; ccccccccH
  0002a	f3 ab		 rep stosd
  0002c	a1 00 00 00 00	 mov	 eax, DWORD PTR ___security_cookie
  00031	33 c5		 xor	 eax, ebp
  00033	50		 push	 eax
  00034	8d 45 f4	 lea	 eax, DWORD PTR __$EHRec$[ebp]
  00037	64 a3 00 00 00
	00		 mov	 DWORD PTR fs:0, eax
  0003d	b9 00 00 00 00	 mov	 ecx, OFFSET __FFC6471F_type_traits
  00042	e8 00 00 00 00	 call	 @__CheckForDebuggerJustMyCode@4

; 1421 :     return static_cast<_Ty&&>(_Arg);

  00047	8b 45 08	 mov	 eax, DWORD PTR __Arg$[ebp]

; 1422 : }

  0004a	8b 4d f4	 mov	 ecx, DWORD PTR __$EHRec$[ebp]
  0004d	64 89 0d 00 00
	00 00		 mov	 DWORD PTR fs:0, ecx
  00054	59		 pop	 ecx
  00055	5f		 pop	 edi
  00056	5e		 pop	 esi
  00057	5b		 pop	 ebx
  00058	81 c4 cc 00 00
	00		 add	 esp, 204		; 000000ccH
  0005e	3b ec		 cmp	 ebp, esp
  00060	e8 00 00 00 00	 call	 __RTC_CheckEsp
  00065	8b e5		 mov	 esp, ebp
  00067	5d		 pop	 ebp
  00068	c3		 ret	 0
_TEXT	ENDS
;	COMDAT text$x
text$x	SEGMENT
__ehhandler$??$forward@V?$allocator@D@std@@@std@@YA$$QAV?$allocator@D@0@AAV10@@Z:
  00000	8b 54 24 08	 mov	 edx, DWORD PTR [esp+8]
  00004	8d 42 0c	 lea	 eax, DWORD PTR [edx+12]
  00007	8b 8a 30 ff ff
	ff		 mov	 ecx, DWORD PTR [edx-208]
  0000d	33 c8		 xor	 ecx, eax
  0000f	e8 00 00 00 00	 call	 @__security_check_cookie@4
  00014	b8 00 00 00 00	 mov	 eax, OFFSET __ehfuncinfo$??$forward@V?$allocator@D@std@@@std@@YA$$QAV?$allocator@D@0@AAV10@@Z
  00019	e9 00 00 00 00	 jmp	 ___CxxFrameHandler3
text$x	ENDS
??$forward@V?$allocator@D@std@@@std@@YA$$QAV?$allocator@D@0@AAV10@@Z ENDP ; std::forward<std::allocator<char> >
; Function compile flags: /Odtp /RTCsu /ZI
; File C:\Program Files (x86)\Microsoft Visual Studio\2019\Community\VC\Tools\MSVC\14.23.28105\include\xmemory
;	COMDAT ??$_Deallocate_plain@V?$allocator@U_Container_proxy@std@@@std@@@std@@YAXAAV?$allocator@U_Container_proxy@std@@@0@QAU_Container_proxy@0@@Z
_TEXT	SEGMENT
__$EHRec$ = -12						; size = 12
__Al$ = 8						; size = 4
__Ptr$ = 12						; size = 4
??$_Deallocate_plain@V?$allocator@U_Container_proxy@std@@@std@@@std@@YAXAAV?$allocator@U_Container_proxy@std@@@0@QAU_Container_proxy@0@@Z PROC ; std::_Deallocate_plain<std::allocator<std::_Container_proxy> >, COMDAT

; 1081 : void _Deallocate_plain(_Alloc& _Al, typename _Alloc::value_type* const _Ptr) noexcept {

  00000	55		 push	 ebp
  00001	8b ec		 mov	 ebp, esp
  00003	6a ff		 push	 -1
  00005	68 00 00 00 00	 push	 __ehhandler$??$_Deallocate_plain@V?$allocator@U_Container_proxy@std@@@std@@@std@@YAXAAV?$allocator@U_Container_proxy@std@@@0@QAU_Container_proxy@0@@Z
  0000a	64 a1 00 00 00
	00		 mov	 eax, DWORD PTR fs:0
  00010	50		 push	 eax
  00011	81 ec c0 00 00
	00		 sub	 esp, 192		; 000000c0H
  00017	53		 push	 ebx
  00018	56		 push	 esi
  00019	57		 push	 edi
  0001a	8d bd 34 ff ff
	ff		 lea	 edi, DWORD PTR [ebp-204]
  00020	b9 30 00 00 00	 mov	 ecx, 48			; 00000030H
  00025	b8 cc cc cc cc	 mov	 eax, -858993460		; ccccccccH
  0002a	f3 ab		 rep stosd
  0002c	a1 00 00 00 00	 mov	 eax, DWORD PTR ___security_cookie
  00031	33 c5		 xor	 eax, ebp
  00033	50		 push	 eax
  00034	8d 45 f4	 lea	 eax, DWORD PTR __$EHRec$[ebp]
  00037	64 a3 00 00 00
	00		 mov	 DWORD PTR fs:0, eax
  0003d	b9 00 00 00 00	 mov	 ecx, OFFSET __DB4EB944_xmemory
  00042	e8 00 00 00 00	 call	 @__CheckForDebuggerJustMyCode@4

; 1082 :     // deallocate a plain pointer using an allocator
; 1083 :     using _Alloc_traits = allocator_traits<_Alloc>;
; 1084 :     if constexpr (is_same_v<_Alloc_ptr_t<_Alloc>, typename _Alloc::value_type*>) {
; 1085 :         _Alloc_traits::deallocate(_Al, _Ptr, 1);

  00047	6a 01		 push	 1
  00049	8b 45 0c	 mov	 eax, DWORD PTR __Ptr$[ebp]
  0004c	50		 push	 eax
  0004d	8b 4d 08	 mov	 ecx, DWORD PTR __Al$[ebp]
  00050	51		 push	 ecx
  00051	e8 00 00 00 00	 call	 ?deallocate@?$_Default_allocator_traits@V?$allocator@U_Container_proxy@std@@@std@@@std@@SAXAAV?$allocator@U_Container_proxy@std@@@2@QAU_Container_proxy@2@I@Z ; std::_Default_allocator_traits<std::allocator<std::_Container_proxy> >::deallocate
  00056	83 c4 0c	 add	 esp, 12			; 0000000cH

; 1086 :     } else {
; 1087 :         using _Ptr_traits = pointer_traits<_Alloc_ptr_t<_Alloc>>;
; 1088 :         _Alloc_traits::deallocate(_Al, _Ptr_traits::pointer_to(*_Ptr), 1);
; 1089 :     }
; 1090 : }

  00059	8b 4d f4	 mov	 ecx, DWORD PTR __$EHRec$[ebp]
  0005c	64 89 0d 00 00
	00 00		 mov	 DWORD PTR fs:0, ecx
  00063	59		 pop	 ecx
  00064	5f		 pop	 edi
  00065	5e		 pop	 esi
  00066	5b		 pop	 ebx
  00067	81 c4 cc 00 00
	00		 add	 esp, 204		; 000000ccH
  0006d	3b ec		 cmp	 ebp, esp
  0006f	e8 00 00 00 00	 call	 __RTC_CheckEsp
  00074	8b e5		 mov	 esp, ebp
  00076	5d		 pop	 ebp
  00077	c3		 ret	 0
_TEXT	ENDS
;	COMDAT text$x
text$x	SEGMENT
__ehhandler$??$_Deallocate_plain@V?$allocator@U_Container_proxy@std@@@std@@@std@@YAXAAV?$allocator@U_Container_proxy@std@@@0@QAU_Container_proxy@0@@Z:
  00000	8b 54 24 08	 mov	 edx, DWORD PTR [esp+8]
  00004	8d 42 0c	 lea	 eax, DWORD PTR [edx+12]
  00007	8b 8a 30 ff ff
	ff		 mov	 ecx, DWORD PTR [edx-208]
  0000d	33 c8		 xor	 ecx, eax
  0000f	e8 00 00 00 00	 call	 @__security_check_cookie@4
  00014	b8 00 00 00 00	 mov	 eax, OFFSET __ehfuncinfo$??$_Deallocate_plain@V?$allocator@U_Container_proxy@std@@@std@@@std@@YAXAAV?$allocator@U_Container_proxy@std@@@0@QAU_Container_proxy@0@@Z
  00019	e9 00 00 00 00	 jmp	 ___CxxFrameHandler3
text$x	ENDS
??$_Deallocate_plain@V?$allocator@U_Container_proxy@std@@@std@@@std@@YAXAAV?$allocator@U_Container_proxy@std@@@0@QAU_Container_proxy@0@@Z ENDP ; std::_Deallocate_plain<std::allocator<std::_Container_proxy> >
; Function compile flags: /Odtp /RTCsu /ZI
; File C:\Program Files (x86)\Microsoft Visual Studio\2019\Community\VC\Tools\MSVC\14.23.28105\include\xstring
;	COMDAT ??$_Insert_string@DU?$char_traits@D@std@@I@std@@YAAAV?$basic_ostream@DU?$char_traits@D@std@@@0@AAV10@QBDI@Z
_TEXT	SEGMENT
tv405 = -332						; size = 8
tv290 = -324						; size = 4
tv287 = -324						; size = 8
tv285 = -324						; size = 4
tv324 = -320						; size = 8
tv289 = -320						; size = 4
tv284 = -320						; size = 4
tv286 = -316						; size = 4
tv135 = -316						; size = 4
tv288 = -313						; size = 1
tv283 = -313						; size = 1
$T2 = -308						; size = 4
$T3 = -296						; size = 4
$T4 = -284						; size = 4
$T5 = -272						; size = 4
$T6 = -260						; size = 4
__Ok$ = -56						; size = 8
__Pad$ = -40						; size = 4
__State$ = -28						; size = 4
__$ArrayPad$ = -20					; size = 4
__$EHRec$ = -16						; size = 16
__Ostr$ = 8						; size = 4
__Data$ = 12						; size = 4
__Size$ = 16						; size = 4
??$_Insert_string@DU?$char_traits@D@std@@I@std@@YAAAV?$basic_ostream@DU?$char_traits@D@std@@@0@AAV10@QBDI@Z PROC ; std::_Insert_string<char,std::char_traits<char>,unsigned int>, COMDAT

; 433  :     const _SizeT _Size) { // insert a character-type sequence into _Ostr as if through a basic_string copy

  00000	55		 push	 ebp
  00001	8b ec		 mov	 ebp, esp
  00003	6a ff		 push	 -1
  00005	68 00 00 00 00	 push	 __ehhandler$??$_Insert_string@DU?$char_traits@D@std@@I@std@@YAAAV?$basic_ostream@DU?$char_traits@D@std@@@0@AAV10@QBDI@Z
  0000a	64 a1 00 00 00
	00		 mov	 eax, DWORD PTR fs:0
  00010	50		 push	 eax
  00011	51		 push	 ecx
  00012	81 ec 3c 01 00
	00		 sub	 esp, 316		; 0000013cH
  00018	53		 push	 ebx
  00019	56		 push	 esi
  0001a	57		 push	 edi
  0001b	8d bd b4 fe ff
	ff		 lea	 edi, DWORD PTR [ebp-332]
  00021	b9 4f 00 00 00	 mov	 ecx, 79			; 0000004fH
  00026	b8 cc cc cc cc	 mov	 eax, -858993460		; ccccccccH
  0002b	f3 ab		 rep stosd
  0002d	a1 00 00 00 00	 mov	 eax, DWORD PTR ___security_cookie
  00032	33 c5		 xor	 eax, ebp
  00034	89 45 ec	 mov	 DWORD PTR __$ArrayPad$[ebp], eax
  00037	50		 push	 eax
  00038	8d 45 f4	 lea	 eax, DWORD PTR __$EHRec$[ebp+4]
  0003b	64 a3 00 00 00
	00		 mov	 DWORD PTR fs:0, eax
  00041	89 65 f0	 mov	 DWORD PTR __$EHRec$[ebp], esp
  00044	b9 00 00 00 00	 mov	 ecx, OFFSET __AF9D3FD8_xstring
  00049	e8 00 00 00 00	 call	 @__CheckForDebuggerJustMyCode@4

; 434  :     using _Ostr_t                    = basic_ostream<_Elem, _Traits>;
; 435  :     typename _Ostr_t::iostate _State = _Ostr_t::goodbit;

  0004e	c7 45 e4 00 00
	00 00		 mov	 DWORD PTR __State$[ebp], 0

; 436  : 
; 437  :     _SizeT _Pad;
; 438  :     if (_Ostr.width() <= 0 || static_cast<_SizeT>(_Ostr.width()) <= _Size) {

  00055	8b 45 08	 mov	 eax, DWORD PTR __Ostr$[ebp]
  00058	8b 08		 mov	 ecx, DWORD PTR [eax]
  0005a	8b 55 08	 mov	 edx, DWORD PTR __Ostr$[ebp]
  0005d	03 51 04	 add	 edx, DWORD PTR [ecx+4]
  00060	8b f4		 mov	 esi, esp
  00062	8b ca		 mov	 ecx, edx
  00064	ff 15 00 00 00
	00		 call	 DWORD PTR __imp_?width@ios_base@std@@QBE_JXZ
  0006a	3b f4		 cmp	 esi, esp
  0006c	e8 00 00 00 00	 call	 __RTC_CheckEsp
  00071	89 85 c0 fe ff
	ff		 mov	 DWORD PTR tv324[ebp], eax
  00077	89 95 c4 fe ff
	ff		 mov	 DWORD PTR tv324[ebp+4], edx
  0007d	83 bd c4 fe ff
	ff 00		 cmp	 DWORD PTR tv324[ebp+4], 0
  00084	7c 2c		 jl	 SHORT $LN10@Insert_str
  00086	7f 09		 jg	 SHORT $LN25@Insert_str
  00088	83 bd c0 fe ff
	ff 00		 cmp	 DWORD PTR tv324[ebp], 0
  0008f	76 21		 jbe	 SHORT $LN10@Insert_str
$LN25@Insert_str:
  00091	8b 45 08	 mov	 eax, DWORD PTR __Ostr$[ebp]
  00094	8b 08		 mov	 ecx, DWORD PTR [eax]
  00096	8b 55 08	 mov	 edx, DWORD PTR __Ostr$[ebp]
  00099	03 51 04	 add	 edx, DWORD PTR [ecx+4]
  0009c	8b f4		 mov	 esi, esp
  0009e	8b ca		 mov	 ecx, edx
  000a0	ff 15 00 00 00
	00		 call	 DWORD PTR __imp_?width@ios_base@std@@QBE_JXZ
  000a6	3b f4		 cmp	 esi, esp
  000a8	e8 00 00 00 00	 call	 __RTC_CheckEsp
  000ad	3b 45 10	 cmp	 eax, DWORD PTR __Size$[ebp]
  000b0	77 09		 ja	 SHORT $LN8@Insert_str
$LN10@Insert_str:

; 439  :         _Pad = 0;

  000b2	c7 45 d8 00 00
	00 00		 mov	 DWORD PTR __Pad$[ebp], 0

; 440  :     } else {

  000b9	eb 22		 jmp	 SHORT $LN9@Insert_str
$LN8@Insert_str:

; 441  :         _Pad = static_cast<_SizeT>(_Ostr.width()) - _Size;

  000bb	8b 45 08	 mov	 eax, DWORD PTR __Ostr$[ebp]
  000be	8b 08		 mov	 ecx, DWORD PTR [eax]
  000c0	8b 55 08	 mov	 edx, DWORD PTR __Ostr$[ebp]
  000c3	03 51 04	 add	 edx, DWORD PTR [ecx+4]
  000c6	8b f4		 mov	 esi, esp
  000c8	8b ca		 mov	 ecx, edx
  000ca	ff 15 00 00 00
	00		 call	 DWORD PTR __imp_?width@ios_base@std@@QBE_JXZ
  000d0	3b f4		 cmp	 esi, esp
  000d2	e8 00 00 00 00	 call	 __RTC_CheckEsp
  000d7	2b 45 10	 sub	 eax, DWORD PTR __Size$[ebp]
  000da	89 45 d8	 mov	 DWORD PTR __Pad$[ebp], eax
$LN9@Insert_str:

; 442  :     }
; 443  : 
; 444  :     const typename _Ostr_t::sentry _Ok(_Ostr);

  000dd	8b 45 08	 mov	 eax, DWORD PTR __Ostr$[ebp]
  000e0	50		 push	 eax
  000e1	8d 4d c8	 lea	 ecx, DWORD PTR __Ok$[ebp]
  000e4	e8 00 00 00 00	 call	 ??0sentry@?$basic_ostream@DU?$char_traits@D@std@@@std@@QAE@AAV12@@Z ; std::basic_ostream<char,std::char_traits<char> >::sentry::sentry
  000e9	c7 45 fc 00 00
	00 00		 mov	 DWORD PTR __$EHRec$[ebp+12], 0

; 445  : 
; 446  :     if (!_Ok) {

  000f0	8d 4d c8	 lea	 ecx, DWORD PTR __Ok$[ebp]
  000f3	e8 00 00 00 00	 call	 ??Bsentry@?$basic_ostream@DU?$char_traits@D@std@@@std@@QBE_NXZ ; std::basic_ostream<char,std::char_traits<char> >::sentry::operator bool
  000f8	0f b6 c0	 movzx	 eax, al
  000fb	85 c0		 test	 eax, eax
  000fd	75 0e		 jne	 SHORT $LN11@Insert_str

; 447  :         _State |= _Ostr_t::badbit;

  000ff	8b 45 e4	 mov	 eax, DWORD PTR __State$[ebp]
  00102	83 c8 04	 or	 eax, 4
  00105	89 45 e4	 mov	 DWORD PTR __State$[ebp], eax

; 448  :     } else { // state okay, insert characters

  00108	e9 a5 02 00 00	 jmp	 $LN12@Insert_str
$LN11@Insert_str:

; 449  :         _TRY_IO_BEGIN

  0010d	c6 45 fc 01	 mov	 BYTE PTR __$EHRec$[ebp+12], 1

; 450  :         if ((_Ostr.flags() & _Ostr_t::adjustfield) != _Ostr_t::left) {

  00111	8b 45 08	 mov	 eax, DWORD PTR __Ostr$[ebp]
  00114	8b 08		 mov	 ecx, DWORD PTR [eax]
  00116	8b 55 08	 mov	 edx, DWORD PTR __Ostr$[ebp]
  00119	03 51 04	 add	 edx, DWORD PTR [ecx+4]
  0011c	8b f4		 mov	 esi, esp
  0011e	8b ca		 mov	 ecx, edx
  00120	ff 15 00 00 00
	00		 call	 DWORD PTR __imp_?flags@ios_base@std@@QBEHXZ
  00126	3b f4		 cmp	 esi, esp
  00128	e8 00 00 00 00	 call	 __RTC_CheckEsp
  0012d	89 85 c4 fe ff
	ff		 mov	 DWORD PTR tv135[ebp], eax
  00133	8b 85 c4 fe ff
	ff		 mov	 eax, DWORD PTR tv135[ebp]
  00139	25 c0 01 00 00	 and	 eax, 448		; 000001c0H
  0013e	83 f8 40	 cmp	 eax, 64			; 00000040H
  00141	0f 84 c0 00 00
	00		 je	 $LN14@Insert_str

; 451  :             for (; 0 < _Pad; --_Pad) { // pad on left

  00147	eb 09		 jmp	 SHORT $LN4@Insert_str
$LN2@Insert_str:
  00149	8b 45 d8	 mov	 eax, DWORD PTR __Pad$[ebp]
  0014c	83 e8 01	 sub	 eax, 1
  0014f	89 45 d8	 mov	 DWORD PTR __Pad$[ebp], eax
$LN4@Insert_str:
  00152	83 7d d8 00	 cmp	 DWORD PTR __Pad$[ebp], 0
  00156	0f 86 ab 00 00
	00		 jbe	 $LN14@Insert_str

; 452  :                 if (_Traits::eq_int_type(_Traits::eof(), _Ostr.rdbuf()->sputc(_Ostr.fill()))) {

  0015c	8b 45 08	 mov	 eax, DWORD PTR __Ostr$[ebp]
  0015f	8b 08		 mov	 ecx, DWORD PTR [eax]
  00161	8b 55 08	 mov	 edx, DWORD PTR __Ostr$[ebp]
  00164	03 51 04	 add	 edx, DWORD PTR [ecx+4]
  00167	8b f4		 mov	 esi, esp
  00169	8b ca		 mov	 ecx, edx
  0016b	ff 15 00 00 00
	00		 call	 DWORD PTR __imp_?fill@?$basic_ios@DU?$char_traits@D@std@@@std@@QBEDXZ
  00171	3b f4		 cmp	 esi, esp
  00173	e8 00 00 00 00	 call	 __RTC_CheckEsp
  00178	88 85 c7 fe ff
	ff		 mov	 BYTE PTR tv283[ebp], al
  0017e	8b 45 08	 mov	 eax, DWORD PTR __Ostr$[ebp]
  00181	8b 08		 mov	 ecx, DWORD PTR [eax]
  00183	8b 55 08	 mov	 edx, DWORD PTR __Ostr$[ebp]
  00186	03 51 04	 add	 edx, DWORD PTR [ecx+4]
  00189	8b f4		 mov	 esi, esp
  0018b	8b ca		 mov	 ecx, edx
  0018d	ff 15 00 00 00
	00		 call	 DWORD PTR __imp_?rdbuf@?$basic_ios@DU?$char_traits@D@std@@@std@@QBEPAV?$basic_streambuf@DU?$char_traits@D@std@@@2@XZ
  00193	3b f4		 cmp	 esi, esp
  00195	e8 00 00 00 00	 call	 __RTC_CheckEsp
  0019a	89 85 c0 fe ff
	ff		 mov	 DWORD PTR tv284[ebp], eax
  001a0	8b f4		 mov	 esi, esp
  001a2	0f b6 85 c7 fe
	ff ff		 movzx	 eax, BYTE PTR tv283[ebp]
  001a9	50		 push	 eax
  001aa	8b 8d c0 fe ff
	ff		 mov	 ecx, DWORD PTR tv284[ebp]
  001b0	ff 15 00 00 00
	00		 call	 DWORD PTR __imp_?sputc@?$basic_streambuf@DU?$char_traits@D@std@@@std@@QAEHD@Z
  001b6	3b f4		 cmp	 esi, esp
  001b8	e8 00 00 00 00	 call	 __RTC_CheckEsp
  001bd	89 85 bc fe ff
	ff		 mov	 DWORD PTR tv285[ebp], eax
  001c3	8b 8d bc fe ff
	ff		 mov	 ecx, DWORD PTR tv285[ebp]
  001c9	89 8d fc fe ff
	ff		 mov	 DWORD PTR $T6[ebp], ecx
  001cf	e8 00 00 00 00	 call	 ?eof@?$_Narrow_char_traits@DH@std@@SAHXZ ; std::_Narrow_char_traits<char,int>::eof
  001d4	89 85 f0 fe ff
	ff		 mov	 DWORD PTR $T5[ebp], eax
  001da	8d 95 fc fe ff
	ff		 lea	 edx, DWORD PTR $T6[ebp]
  001e0	52		 push	 edx
  001e1	8d 85 f0 fe ff
	ff		 lea	 eax, DWORD PTR $T5[ebp]
  001e7	50		 push	 eax
  001e8	e8 00 00 00 00	 call	 ?eq_int_type@?$_Narrow_char_traits@DH@std@@SA_NABH0@Z ; std::_Narrow_char_traits<char,int>::eq_int_type
  001ed	83 c4 08	 add	 esp, 8
  001f0	0f b6 c8	 movzx	 ecx, al
  001f3	85 c9		 test	 ecx, ecx
  001f5	74 0b		 je	 SHORT $LN15@Insert_str

; 453  :                     _State |= _Ostr_t::badbit; // insertion failed, quit

  001f7	8b 45 e4	 mov	 eax, DWORD PTR __State$[ebp]
  001fa	83 c8 04	 or	 eax, 4
  001fd	89 45 e4	 mov	 DWORD PTR __State$[ebp], eax

; 454  :                     break;

  00200	eb 05		 jmp	 SHORT $LN14@Insert_str
$LN15@Insert_str:

; 455  :                 }
; 456  :             }

  00202	e9 42 ff ff ff	 jmp	 $LN2@Insert_str
$LN14@Insert_str:

; 457  :         }
; 458  : 
; 459  :         if (_State == _Ostr_t::goodbit
; 460  :             && _Ostr.rdbuf()->sputn(_Data, static_cast<streamsize>(_Size)) != static_cast<streamsize>(_Size)) {

  00207	83 7d e4 00	 cmp	 DWORD PTR __State$[ebp], 0
  0020b	0f 85 89 00 00
	00		 jne	 $LN16@Insert_str
  00211	8b 45 08	 mov	 eax, DWORD PTR __Ostr$[ebp]
  00214	8b 08		 mov	 ecx, DWORD PTR [eax]
  00216	8b 55 08	 mov	 edx, DWORD PTR __Ostr$[ebp]
  00219	03 51 04	 add	 edx, DWORD PTR [ecx+4]
  0021c	8b f4		 mov	 esi, esp
  0021e	8b ca		 mov	 ecx, edx
  00220	ff 15 00 00 00
	00		 call	 DWORD PTR __imp_?rdbuf@?$basic_ios@DU?$char_traits@D@std@@@std@@QBEPAV?$basic_streambuf@DU?$char_traits@D@std@@@2@XZ
  00226	3b f4		 cmp	 esi, esp
  00228	e8 00 00 00 00	 call	 __RTC_CheckEsp
  0022d	89 85 c4 fe ff
	ff		 mov	 DWORD PTR tv286[ebp], eax
  00233	8b 45 10	 mov	 eax, DWORD PTR __Size$[ebp]
  00236	33 c9		 xor	 ecx, ecx
  00238	8b f4		 mov	 esi, esp
  0023a	51		 push	 ecx
  0023b	50		 push	 eax
  0023c	8b 55 0c	 mov	 edx, DWORD PTR __Data$[ebp]
  0023f	52		 push	 edx
  00240	8b 8d c4 fe ff
	ff		 mov	 ecx, DWORD PTR tv286[ebp]
  00246	ff 15 00 00 00
	00		 call	 DWORD PTR __imp_?sputn@?$basic_streambuf@DU?$char_traits@D@std@@@std@@QAE_JPBD_J@Z
  0024c	3b f4		 cmp	 esi, esp
  0024e	e8 00 00 00 00	 call	 __RTC_CheckEsp
  00253	89 85 bc fe ff
	ff		 mov	 DWORD PTR tv287[ebp], eax
  00259	89 95 c0 fe ff
	ff		 mov	 DWORD PTR tv287[ebp+4], edx
  0025f	8b 45 10	 mov	 eax, DWORD PTR __Size$[ebp]
  00262	33 c9		 xor	 ecx, ecx
  00264	89 85 b4 fe ff
	ff		 mov	 DWORD PTR tv405[ebp], eax
  0026a	89 8d b8 fe ff
	ff		 mov	 DWORD PTR tv405[ebp+4], ecx
  00270	8b 95 bc fe ff
	ff		 mov	 edx, DWORD PTR tv287[ebp]
  00276	3b 95 b4 fe ff
	ff		 cmp	 edx, DWORD PTR tv405[ebp]
  0027c	75 0e		 jne	 SHORT $LN26@Insert_str
  0027e	8b 85 c0 fe ff
	ff		 mov	 eax, DWORD PTR tv287[ebp+4]
  00284	3b 85 b8 fe ff
	ff		 cmp	 eax, DWORD PTR tv405[ebp+4]
  0028a	74 0e		 je	 SHORT $LN16@Insert_str
$LN26@Insert_str:

; 461  :             _State |= _Ostr_t::badbit;

  0028c	8b 45 e4	 mov	 eax, DWORD PTR __State$[ebp]
  0028f	83 c8 04	 or	 eax, 4
  00292	89 45 e4	 mov	 DWORD PTR __State$[ebp], eax

; 462  :         } else {

  00295	e9 c0 00 00 00	 jmp	 $LN17@Insert_str
$LN16@Insert_str:

; 463  :             for (; 0 < _Pad; --_Pad) { // pad on right

  0029a	eb 09		 jmp	 SHORT $LN7@Insert_str
$LN5@Insert_str:
  0029c	8b 45 d8	 mov	 eax, DWORD PTR __Pad$[ebp]
  0029f	83 e8 01	 sub	 eax, 1
  002a2	89 45 d8	 mov	 DWORD PTR __Pad$[ebp], eax
$LN7@Insert_str:
  002a5	83 7d d8 00	 cmp	 DWORD PTR __Pad$[ebp], 0
  002a9	0f 86 ab 00 00
	00		 jbe	 $LN17@Insert_str

; 464  :                 if (_Traits::eq_int_type(_Traits::eof(), _Ostr.rdbuf()->sputc(_Ostr.fill()))) {

  002af	8b 45 08	 mov	 eax, DWORD PTR __Ostr$[ebp]
  002b2	8b 08		 mov	 ecx, DWORD PTR [eax]
  002b4	8b 55 08	 mov	 edx, DWORD PTR __Ostr$[ebp]
  002b7	03 51 04	 add	 edx, DWORD PTR [ecx+4]
  002ba	8b f4		 mov	 esi, esp
  002bc	8b ca		 mov	 ecx, edx
  002be	ff 15 00 00 00
	00		 call	 DWORD PTR __imp_?fill@?$basic_ios@DU?$char_traits@D@std@@@std@@QBEDXZ
  002c4	3b f4		 cmp	 esi, esp
  002c6	e8 00 00 00 00	 call	 __RTC_CheckEsp
  002cb	88 85 c7 fe ff
	ff		 mov	 BYTE PTR tv288[ebp], al
  002d1	8b 45 08	 mov	 eax, DWORD PTR __Ostr$[ebp]
  002d4	8b 08		 mov	 ecx, DWORD PTR [eax]
  002d6	8b 55 08	 mov	 edx, DWORD PTR __Ostr$[ebp]
  002d9	03 51 04	 add	 edx, DWORD PTR [ecx+4]
  002dc	8b f4		 mov	 esi, esp
  002de	8b ca		 mov	 ecx, edx
  002e0	ff 15 00 00 00
	00		 call	 DWORD PTR __imp_?rdbuf@?$basic_ios@DU?$char_traits@D@std@@@std@@QBEPAV?$basic_streambuf@DU?$char_traits@D@std@@@2@XZ
  002e6	3b f4		 cmp	 esi, esp
  002e8	e8 00 00 00 00	 call	 __RTC_CheckEsp
  002ed	89 85 c0 fe ff
	ff		 mov	 DWORD PTR tv289[ebp], eax
  002f3	8b f4		 mov	 esi, esp
  002f5	0f b6 85 c7 fe
	ff ff		 movzx	 eax, BYTE PTR tv288[ebp]
  002fc	50		 push	 eax
  002fd	8b 8d c0 fe ff
	ff		 mov	 ecx, DWORD PTR tv289[ebp]
  00303	ff 15 00 00 00
	00		 call	 DWORD PTR __imp_?sputc@?$basic_streambuf@DU?$char_traits@D@std@@@std@@QAEHD@Z
  00309	3b f4		 cmp	 esi, esp
  0030b	e8 00 00 00 00	 call	 __RTC_CheckEsp
  00310	89 85 bc fe ff
	ff		 mov	 DWORD PTR tv290[ebp], eax
  00316	8b 8d bc fe ff
	ff		 mov	 ecx, DWORD PTR tv290[ebp]
  0031c	89 8d e4 fe ff
	ff		 mov	 DWORD PTR $T4[ebp], ecx
  00322	e8 00 00 00 00	 call	 ?eof@?$_Narrow_char_traits@DH@std@@SAHXZ ; std::_Narrow_char_traits<char,int>::eof
  00327	89 85 d8 fe ff
	ff		 mov	 DWORD PTR $T3[ebp], eax
  0032d	8d 95 e4 fe ff
	ff		 lea	 edx, DWORD PTR $T4[ebp]
  00333	52		 push	 edx
  00334	8d 85 d8 fe ff
	ff		 lea	 eax, DWORD PTR $T3[ebp]
  0033a	50		 push	 eax
  0033b	e8 00 00 00 00	 call	 ?eq_int_type@?$_Narrow_char_traits@DH@std@@SA_NABH0@Z ; std::_Narrow_char_traits<char,int>::eq_int_type
  00340	83 c4 08	 add	 esp, 8
  00343	0f b6 c8	 movzx	 ecx, al
  00346	85 c9		 test	 ecx, ecx
  00348	74 0b		 je	 SHORT $LN18@Insert_str

; 465  :                     _State |= _Ostr_t::badbit; // insertion failed, quit

  0034a	8b 45 e4	 mov	 eax, DWORD PTR __State$[ebp]
  0034d	83 c8 04	 or	 eax, 4
  00350	89 45 e4	 mov	 DWORD PTR __State$[ebp], eax

; 466  :                     break;

  00353	eb 05		 jmp	 SHORT $LN17@Insert_str
$LN18@Insert_str:

; 467  :                 }
; 468  :             }

  00355	e9 42 ff ff ff	 jmp	 $LN5@Insert_str
$LN17@Insert_str:

; 469  :         }
; 470  : 
; 471  :         _Ostr.width(0);

  0035a	8b f4		 mov	 esi, esp
  0035c	6a 00		 push	 0
  0035e	6a 00		 push	 0
  00360	8b 45 08	 mov	 eax, DWORD PTR __Ostr$[ebp]
  00363	8b 08		 mov	 ecx, DWORD PTR [eax]
  00365	8b 55 08	 mov	 edx, DWORD PTR __Ostr$[ebp]
  00368	03 51 04	 add	 edx, DWORD PTR [ecx+4]
  0036b	8b ca		 mov	 ecx, edx
  0036d	ff 15 00 00 00
	00		 call	 DWORD PTR __imp_?width@ios_base@std@@QAE_J_J@Z
  00373	3b f4		 cmp	 esi, esp
  00375	e8 00 00 00 00	 call	 __RTC_CheckEsp
  0037a	eb 26		 jmp	 SHORT $LN20@Insert_str
__catch$??$_Insert_string@DU?$char_traits@D@std@@I@std@@YAAAV?$basic_ostream@DU?$char_traits@D@std@@@0@AAV10@QBDI@Z$0:

; 472  :         _CATCH_IO_(_Ostr_t, _Ostr)

  0037c	8b f4		 mov	 esi, esp
  0037e	6a 01		 push	 1
  00380	6a 04		 push	 4
  00382	8b 45 08	 mov	 eax, DWORD PTR __Ostr$[ebp]
  00385	8b 08		 mov	 ecx, DWORD PTR [eax]
  00387	8b 55 08	 mov	 edx, DWORD PTR __Ostr$[ebp]
  0038a	03 51 04	 add	 edx, DWORD PTR [ecx+4]
  0038d	8b ca		 mov	 ecx, edx
  0038f	ff 15 00 00 00
	00		 call	 DWORD PTR __imp_?setstate@?$basic_ios@DU?$char_traits@D@std@@@std@@QAEXH_N@Z
  00395	3b f4		 cmp	 esi, esp
  00397	e8 00 00 00 00	 call	 __RTC_CheckEsp
  0039c	b8 00 00 00 00	 mov	 eax, $LN24@Insert_str
  003a1	c3		 ret	 0
$LN20@Insert_str:
  003a2	c7 45 fc 00 00
	00 00		 mov	 DWORD PTR __$EHRec$[ebp+12], 0
  003a9	eb 07		 jmp	 SHORT $LN12@Insert_str
$LN24@Insert_str:
  003ab	c7 45 fc 00 00
	00 00		 mov	 DWORD PTR __$EHRec$[ebp+12], 0
$LN12@Insert_str:

; 473  :     }
; 474  : 
; 475  :     _Ostr.setstate(_State);

  003b2	8b f4		 mov	 esi, esp
  003b4	6a 00		 push	 0
  003b6	8b 45 e4	 mov	 eax, DWORD PTR __State$[ebp]
  003b9	50		 push	 eax
  003ba	8b 4d 08	 mov	 ecx, DWORD PTR __Ostr$[ebp]
  003bd	8b 11		 mov	 edx, DWORD PTR [ecx]
  003bf	8b 4d 08	 mov	 ecx, DWORD PTR __Ostr$[ebp]
  003c2	03 4a 04	 add	 ecx, DWORD PTR [edx+4]
  003c5	ff 15 00 00 00
	00		 call	 DWORD PTR __imp_?setstate@?$basic_ios@DU?$char_traits@D@std@@@std@@QAEXH_N@Z
  003cb	3b f4		 cmp	 esi, esp
  003cd	e8 00 00 00 00	 call	 __RTC_CheckEsp

; 476  :     return _Ostr;

  003d2	8b 45 08	 mov	 eax, DWORD PTR __Ostr$[ebp]
  003d5	89 85 cc fe ff
	ff		 mov	 DWORD PTR $T2[ebp], eax
  003db	c7 45 fc ff ff
	ff ff		 mov	 DWORD PTR __$EHRec$[ebp+12], -1
  003e2	8d 4d c8	 lea	 ecx, DWORD PTR __Ok$[ebp]
  003e5	e8 00 00 00 00	 call	 ??1sentry@?$basic_ostream@DU?$char_traits@D@std@@@std@@QAE@XZ ; std::basic_ostream<char,std::char_traits<char> >::sentry::~sentry
  003ea	8b 85 cc fe ff
	ff		 mov	 eax, DWORD PTR $T2[ebp]

; 477  : }

  003f0	52		 push	 edx
  003f1	8b cd		 mov	 ecx, ebp
  003f3	50		 push	 eax
  003f4	8d 15 00 00 00
	00		 lea	 edx, DWORD PTR $LN30@Insert_str
  003fa	e8 00 00 00 00	 call	 @_RTC_CheckStackVars@8
  003ff	58		 pop	 eax
  00400	5a		 pop	 edx
  00401	8b 4d f4	 mov	 ecx, DWORD PTR __$EHRec$[ebp+4]
  00404	64 89 0d 00 00
	00 00		 mov	 DWORD PTR fs:0, ecx
  0040b	59		 pop	 ecx
  0040c	5f		 pop	 edi
  0040d	5e		 pop	 esi
  0040e	5b		 pop	 ebx
  0040f	8b 4d ec	 mov	 ecx, DWORD PTR __$ArrayPad$[ebp]
  00412	33 cd		 xor	 ecx, ebp
  00414	e8 00 00 00 00	 call	 @__security_check_cookie@4
  00419	81 c4 4c 01 00
	00		 add	 esp, 332		; 0000014cH
  0041f	3b ec		 cmp	 ebp, esp
  00421	e8 00 00 00 00	 call	 __RTC_CheckEsp
  00426	8b e5		 mov	 esp, ebp
  00428	5d		 pop	 ebp
  00429	c3		 ret	 0
  0042a	66 90		 npad	 2
$LN30@Insert_str:
  0042c	01 00 00 00	 DD	 1
  00430	00 00 00 00	 DD	 $LN29@Insert_str
$LN29@Insert_str:
  00434	c8 ff ff ff	 DD	 -56			; ffffffc8H
  00438	08 00 00 00	 DD	 8
  0043c	00 00 00 00	 DD	 $LN27@Insert_str
$LN27@Insert_str:
  00440	5f		 DB	 95			; 0000005fH
  00441	4f		 DB	 79			; 0000004fH
  00442	6b		 DB	 107			; 0000006bH
  00443	00		 DB	 0
_TEXT	ENDS
;	COMDAT text$x
text$x	SEGMENT
__unwindfunclet$??$_Insert_string@DU?$char_traits@D@std@@I@std@@YAAAV?$basic_ostream@DU?$char_traits@D@std@@@0@AAV10@QBDI@Z$2:
  00000	8d 4d c8	 lea	 ecx, DWORD PTR __Ok$[ebp]
  00003	e9 00 00 00 00	 jmp	 ??1sentry@?$basic_ostream@DU?$char_traits@D@std@@@std@@QAE@XZ ; std::basic_ostream<char,std::char_traits<char> >::sentry::~sentry
__ehhandler$??$_Insert_string@DU?$char_traits@D@std@@I@std@@YAAAV?$basic_ostream@DU?$char_traits@D@std@@@0@AAV10@QBDI@Z:
  00008	8b 54 24 08	 mov	 edx, DWORD PTR [esp+8]
  0000c	8d 42 0c	 lea	 eax, DWORD PTR [edx+12]
  0000f	8b 8a b0 fe ff
	ff		 mov	 ecx, DWORD PTR [edx-336]
  00015	33 c8		 xor	 ecx, eax
  00017	e8 00 00 00 00	 call	 @__security_check_cookie@4
  0001c	8b 4a f8	 mov	 ecx, DWORD PTR [edx-8]
  0001f	33 c8		 xor	 ecx, eax
  00021	e8 00 00 00 00	 call	 @__security_check_cookie@4
  00026	b8 00 00 00 00	 mov	 eax, OFFSET __ehfuncinfo$??$_Insert_string@DU?$char_traits@D@std@@I@std@@YAAAV?$basic_ostream@DU?$char_traits@D@std@@@0@AAV10@QBDI@Z
  0002b	e9 00 00 00 00	 jmp	 ___CxxFrameHandler3
text$x	ENDS
??$_Insert_string@DU?$char_traits@D@std@@I@std@@YAAAV?$basic_ostream@DU?$char_traits@D@std@@@0@AAV10@QBDI@Z ENDP ; std::_Insert_string<char,std::char_traits<char>,unsigned int>
; Function compile flags: /Odtp /RTCsu /ZI
; File C:\Program Files (x86)\Microsoft Visual Studio\2019\Community\VC\Tools\MSVC\14.23.28105\include\type_traits
;	COMDAT ??$forward@PAU_Container_base12@std@@@std@@YA$$QAPAU_Container_base12@0@AAPAU10@@Z
_TEXT	SEGMENT
__$EHRec$ = -12						; size = 12
__Arg$ = 8						; size = 4
??$forward@PAU_Container_base12@std@@@std@@YA$$QAPAU_Container_base12@0@AAPAU10@@Z PROC ; std::forward<std::_Container_base12 *>, COMDAT

; 1420 :     remove_reference_t<_Ty>& _Arg) noexcept { // forward an lvalue as either an lvalue or an rvalue

  00000	55		 push	 ebp
  00001	8b ec		 mov	 ebp, esp
  00003	6a ff		 push	 -1
  00005	68 00 00 00 00	 push	 __ehhandler$??$forward@PAU_Container_base12@std@@@std@@YA$$QAPAU_Container_base12@0@AAPAU10@@Z
  0000a	64 a1 00 00 00
	00		 mov	 eax, DWORD PTR fs:0
  00010	50		 push	 eax
  00011	81 ec c0 00 00
	00		 sub	 esp, 192		; 000000c0H
  00017	53		 push	 ebx
  00018	56		 push	 esi
  00019	57		 push	 edi
  0001a	8d bd 34 ff ff
	ff		 lea	 edi, DWORD PTR [ebp-204]
  00020	b9 30 00 00 00	 mov	 ecx, 48			; 00000030H
  00025	b8 cc cc cc cc	 mov	 eax, -858993460		; ccccccccH
  0002a	f3 ab		 rep stosd
  0002c	a1 00 00 00 00	 mov	 eax, DWORD PTR ___security_cookie
  00031	33 c5		 xor	 eax, ebp
  00033	50		 push	 eax
  00034	8d 45 f4	 lea	 eax, DWORD PTR __$EHRec$[ebp]
  00037	64 a3 00 00 00
	00		 mov	 DWORD PTR fs:0, eax
  0003d	b9 00 00 00 00	 mov	 ecx, OFFSET __FFC6471F_type_traits
  00042	e8 00 00 00 00	 call	 @__CheckForDebuggerJustMyCode@4

; 1421 :     return static_cast<_Ty&&>(_Arg);

  00047	8b 45 08	 mov	 eax, DWORD PTR __Arg$[ebp]

; 1422 : }

  0004a	8b 4d f4	 mov	 ecx, DWORD PTR __$EHRec$[ebp]
  0004d	64 89 0d 00 00
	00 00		 mov	 DWORD PTR fs:0, ecx
  00054	59		 pop	 ecx
  00055	5f		 pop	 edi
  00056	5e		 pop	 esi
  00057	5b		 pop	 ebx
  00058	81 c4 cc 00 00
	00		 add	 esp, 204		; 000000ccH
  0005e	3b ec		 cmp	 ebp, esp
  00060	e8 00 00 00 00	 call	 __RTC_CheckEsp
  00065	8b e5		 mov	 esp, ebp
  00067	5d		 pop	 ebp
  00068	c3		 ret	 0
_TEXT	ENDS
;	COMDAT text$x
text$x	SEGMENT
__ehhandler$??$forward@PAU_Container_base12@std@@@std@@YA$$QAPAU_Container_base12@0@AAPAU10@@Z:
  00000	8b 54 24 08	 mov	 edx, DWORD PTR [esp+8]
  00004	8d 42 0c	 lea	 eax, DWORD PTR [edx+12]
  00007	8b 8a 30 ff ff
	ff		 mov	 ecx, DWORD PTR [edx-208]
  0000d	33 c8		 xor	 ecx, eax
  0000f	e8 00 00 00 00	 call	 @__security_check_cookie@4
  00014	b8 00 00 00 00	 mov	 eax, OFFSET __ehfuncinfo$??$forward@PAU_Container_base12@std@@@std@@YA$$QAPAU_Container_base12@0@AAPAU10@@Z
  00019	e9 00 00 00 00	 jmp	 ___CxxFrameHandler3
text$x	ENDS
??$forward@PAU_Container_base12@std@@@std@@YA$$QAPAU_Container_base12@0@AAPAU10@@Z ENDP ; std::forward<std::_Container_base12 *>
; Function compile flags: /Odtp /RTCsu /ZI
; File C:\Program Files (x86)\Microsoft Visual Studio\2019\Community\VC\Tools\MSVC\14.23.28105\include\xstddef
;	COMDAT ??$addressof@U_Container_proxy@std@@@std@@YAPAU_Container_proxy@0@AAU10@@Z
_TEXT	SEGMENT
__$EHRec$ = -12						; size = 12
__Val$ = 8						; size = 4
??$addressof@U_Container_proxy@std@@@std@@YAPAU_Container_proxy@0@AAU10@@Z PROC ; std::addressof<std::_Container_proxy>, COMDAT

; 279  : _NODISCARD constexpr _Ty* addressof(_Ty& _Val) noexcept { // return address of _Val

  00000	55		 push	 ebp
  00001	8b ec		 mov	 ebp, esp
  00003	6a ff		 push	 -1
  00005	68 00 00 00 00	 push	 __ehhandler$??$addressof@U_Container_proxy@std@@@std@@YAPAU_Container_proxy@0@AAU10@@Z
  0000a	64 a1 00 00 00
	00		 mov	 eax, DWORD PTR fs:0
  00010	50		 push	 eax
  00011	81 ec c0 00 00
	00		 sub	 esp, 192		; 000000c0H
  00017	53		 push	 ebx
  00018	56		 push	 esi
  00019	57		 push	 edi
  0001a	8d bd 34 ff ff
	ff		 lea	 edi, DWORD PTR [ebp-204]
  00020	b9 30 00 00 00	 mov	 ecx, 48			; 00000030H
  00025	b8 cc cc cc cc	 mov	 eax, -858993460		; ccccccccH
  0002a	f3 ab		 rep stosd
  0002c	a1 00 00 00 00	 mov	 eax, DWORD PTR ___security_cookie
  00031	33 c5		 xor	 eax, ebp
  00033	50		 push	 eax
  00034	8d 45 f4	 lea	 eax, DWORD PTR __$EHRec$[ebp]
  00037	64 a3 00 00 00
	00		 mov	 DWORD PTR fs:0, eax
  0003d	b9 00 00 00 00	 mov	 ecx, OFFSET __46C44D95_xstddef
  00042	e8 00 00 00 00	 call	 @__CheckForDebuggerJustMyCode@4

; 280  :     return __builtin_addressof(_Val);

  00047	8b 45 08	 mov	 eax, DWORD PTR __Val$[ebp]

; 281  : }

  0004a	8b 4d f4	 mov	 ecx, DWORD PTR __$EHRec$[ebp]
  0004d	64 89 0d 00 00
	00 00		 mov	 DWORD PTR fs:0, ecx
  00054	59		 pop	 ecx
  00055	5f		 pop	 edi
  00056	5e		 pop	 esi
  00057	5b		 pop	 ebx
  00058	81 c4 cc 00 00
	00		 add	 esp, 204		; 000000ccH
  0005e	3b ec		 cmp	 ebp, esp
  00060	e8 00 00 00 00	 call	 __RTC_CheckEsp
  00065	8b e5		 mov	 esp, ebp
  00067	5d		 pop	 ebp
  00068	c3		 ret	 0
_TEXT	ENDS
;	COMDAT text$x
text$x	SEGMENT
__ehhandler$??$addressof@U_Container_proxy@std@@@std@@YAPAU_Container_proxy@0@AAU10@@Z:
  00000	8b 54 24 08	 mov	 edx, DWORD PTR [esp+8]
  00004	8d 42 0c	 lea	 eax, DWORD PTR [edx+12]
  00007	8b 8a 30 ff ff
	ff		 mov	 ecx, DWORD PTR [edx-208]
  0000d	33 c8		 xor	 ecx, eax
  0000f	e8 00 00 00 00	 call	 @__security_check_cookie@4
  00014	b8 00 00 00 00	 mov	 eax, OFFSET __ehfuncinfo$??$addressof@U_Container_proxy@std@@@std@@YAPAU_Container_proxy@0@AAU10@@Z
  00019	e9 00 00 00 00	 jmp	 ___CxxFrameHandler3
text$x	ENDS
??$addressof@U_Container_proxy@std@@@std@@YAPAU_Container_proxy@0@AAU10@@Z ENDP ; std::addressof<std::_Container_proxy>
; Function compile flags: /Odtp /RTCsu /ZI
; File C:\Program Files (x86)\Microsoft Visual Studio\2019\Community\VC\Tools\MSVC\14.23.28105\include\xstddef
;	COMDAT ??$addressof@$$CBV?$_String_val@U?$_Simple_types@D@std@@@std@@@std@@YAPBV?$_String_val@U?$_Simple_types@D@std@@@0@ABV10@@Z
_TEXT	SEGMENT
__$EHRec$ = -12						; size = 12
__Val$ = 8						; size = 4
??$addressof@$$CBV?$_String_val@U?$_Simple_types@D@std@@@std@@@std@@YAPBV?$_String_val@U?$_Simple_types@D@std@@@0@ABV10@@Z PROC ; std::addressof<std::_String_val<std::_Simple_types<char> > const >, COMDAT

; 279  : _NODISCARD constexpr _Ty* addressof(_Ty& _Val) noexcept { // return address of _Val

  00000	55		 push	 ebp
  00001	8b ec		 mov	 ebp, esp
  00003	6a ff		 push	 -1
  00005	68 00 00 00 00	 push	 __ehhandler$??$addressof@$$CBV?$_String_val@U?$_Simple_types@D@std@@@std@@@std@@YAPBV?$_String_val@U?$_Simple_types@D@std@@@0@ABV10@@Z
  0000a	64 a1 00 00 00
	00		 mov	 eax, DWORD PTR fs:0
  00010	50		 push	 eax
  00011	81 ec c0 00 00
	00		 sub	 esp, 192		; 000000c0H
  00017	53		 push	 ebx
  00018	56		 push	 esi
  00019	57		 push	 edi
  0001a	8d bd 34 ff ff
	ff		 lea	 edi, DWORD PTR [ebp-204]
  00020	b9 30 00 00 00	 mov	 ecx, 48			; 00000030H
  00025	b8 cc cc cc cc	 mov	 eax, -858993460		; ccccccccH
  0002a	f3 ab		 rep stosd
  0002c	a1 00 00 00 00	 mov	 eax, DWORD PTR ___security_cookie
  00031	33 c5		 xor	 eax, ebp
  00033	50		 push	 eax
  00034	8d 45 f4	 lea	 eax, DWORD PTR __$EHRec$[ebp]
  00037	64 a3 00 00 00
	00		 mov	 DWORD PTR fs:0, eax
  0003d	b9 00 00 00 00	 mov	 ecx, OFFSET __46C44D95_xstddef
  00042	e8 00 00 00 00	 call	 @__CheckForDebuggerJustMyCode@4

; 280  :     return __builtin_addressof(_Val);

  00047	8b 45 08	 mov	 eax, DWORD PTR __Val$[ebp]

; 281  : }

  0004a	8b 4d f4	 mov	 ecx, DWORD PTR __$EHRec$[ebp]
  0004d	64 89 0d 00 00
	00 00		 mov	 DWORD PTR fs:0, ecx
  00054	59		 pop	 ecx
  00055	5f		 pop	 edi
  00056	5e		 pop	 esi
  00057	5b		 pop	 ebx
  00058	81 c4 cc 00 00
	00		 add	 esp, 204		; 000000ccH
  0005e	3b ec		 cmp	 ebp, esp
  00060	e8 00 00 00 00	 call	 __RTC_CheckEsp
  00065	8b e5		 mov	 esp, ebp
  00067	5d		 pop	 ebp
  00068	c3		 ret	 0
_TEXT	ENDS
;	COMDAT text$x
text$x	SEGMENT
__ehhandler$??$addressof@$$CBV?$_String_val@U?$_Simple_types@D@std@@@std@@@std@@YAPBV?$_String_val@U?$_Simple_types@D@std@@@0@ABV10@@Z:
  00000	8b 54 24 08	 mov	 edx, DWORD PTR [esp+8]
  00004	8d 42 0c	 lea	 eax, DWORD PTR [edx+12]
  00007	8b 8a 30 ff ff
	ff		 mov	 ecx, DWORD PTR [edx-208]
  0000d	33 c8		 xor	 ecx, eax
  0000f	e8 00 00 00 00	 call	 @__security_check_cookie@4
  00014	b8 00 00 00 00	 mov	 eax, OFFSET __ehfuncinfo$??$addressof@$$CBV?$_String_val@U?$_Simple_types@D@std@@@std@@@std@@YAPBV?$_String_val@U?$_Simple_types@D@std@@@0@ABV10@@Z
  00019	e9 00 00 00 00	 jmp	 ___CxxFrameHandler3
text$x	ENDS
??$addressof@$$CBV?$_String_val@U?$_Simple_types@D@std@@@std@@@std@@YAPBV?$_String_val@U?$_Simple_types@D@std@@@0@ABV10@@Z ENDP ; std::addressof<std::_String_val<std::_Simple_types<char> > const >
; Function compile flags: /Odtp /RTCsu /ZI
; File C:\Program Files (x86)\Microsoft Visual Studio\2019\Community\VC\Tools\MSVC\14.23.28105\include\xstddef
;	COMDAT ??$addressof@V?$_String_val@U?$_Simple_types@D@std@@@std@@@std@@YAPAV?$_String_val@U?$_Simple_types@D@std@@@0@AAV10@@Z
_TEXT	SEGMENT
__$EHRec$ = -12						; size = 12
__Val$ = 8						; size = 4
??$addressof@V?$_String_val@U?$_Simple_types@D@std@@@std@@@std@@YAPAV?$_String_val@U?$_Simple_types@D@std@@@0@AAV10@@Z PROC ; std::addressof<std::_String_val<std::_Simple_types<char> > >, COMDAT

; 279  : _NODISCARD constexpr _Ty* addressof(_Ty& _Val) noexcept { // return address of _Val

  00000	55		 push	 ebp
  00001	8b ec		 mov	 ebp, esp
  00003	6a ff		 push	 -1
  00005	68 00 00 00 00	 push	 __ehhandler$??$addressof@V?$_String_val@U?$_Simple_types@D@std@@@std@@@std@@YAPAV?$_String_val@U?$_Simple_types@D@std@@@0@AAV10@@Z
  0000a	64 a1 00 00 00
	00		 mov	 eax, DWORD PTR fs:0
  00010	50		 push	 eax
  00011	81 ec c0 00 00
	00		 sub	 esp, 192		; 000000c0H
  00017	53		 push	 ebx
  00018	56		 push	 esi
  00019	57		 push	 edi
  0001a	8d bd 34 ff ff
	ff		 lea	 edi, DWORD PTR [ebp-204]
  00020	b9 30 00 00 00	 mov	 ecx, 48			; 00000030H
  00025	b8 cc cc cc cc	 mov	 eax, -858993460		; ccccccccH
  0002a	f3 ab		 rep stosd
  0002c	a1 00 00 00 00	 mov	 eax, DWORD PTR ___security_cookie
  00031	33 c5		 xor	 eax, ebp
  00033	50		 push	 eax
  00034	8d 45 f4	 lea	 eax, DWORD PTR __$EHRec$[ebp]
  00037	64 a3 00 00 00
	00		 mov	 DWORD PTR fs:0, eax
  0003d	b9 00 00 00 00	 mov	 ecx, OFFSET __46C44D95_xstddef
  00042	e8 00 00 00 00	 call	 @__CheckForDebuggerJustMyCode@4

; 280  :     return __builtin_addressof(_Val);

  00047	8b 45 08	 mov	 eax, DWORD PTR __Val$[ebp]

; 281  : }

  0004a	8b 4d f4	 mov	 ecx, DWORD PTR __$EHRec$[ebp]
  0004d	64 89 0d 00 00
	00 00		 mov	 DWORD PTR fs:0, ecx
  00054	59		 pop	 ecx
  00055	5f		 pop	 edi
  00056	5e		 pop	 esi
  00057	5b		 pop	 ebx
  00058	81 c4 cc 00 00
	00		 add	 esp, 204		; 000000ccH
  0005e	3b ec		 cmp	 ebp, esp
  00060	e8 00 00 00 00	 call	 __RTC_CheckEsp
  00065	8b e5		 mov	 esp, ebp
  00067	5d		 pop	 ebp
  00068	c3		 ret	 0
_TEXT	ENDS
;	COMDAT text$x
text$x	SEGMENT
__ehhandler$??$addressof@V?$_String_val@U?$_Simple_types@D@std@@@std@@@std@@YAPAV?$_String_val@U?$_Simple_types@D@std@@@0@AAV10@@Z:
  00000	8b 54 24 08	 mov	 edx, DWORD PTR [esp+8]
  00004	8d 42 0c	 lea	 eax, DWORD PTR [edx+12]
  00007	8b 8a 30 ff ff
	ff		 mov	 ecx, DWORD PTR [edx-208]
  0000d	33 c8		 xor	 ecx, eax
  0000f	e8 00 00 00 00	 call	 @__security_check_cookie@4
  00014	b8 00 00 00 00	 mov	 eax, OFFSET __ehfuncinfo$??$addressof@V?$_String_val@U?$_Simple_types@D@std@@@std@@@std@@YAPAV?$_String_val@U?$_Simple_types@D@std@@@0@AAV10@@Z
  00019	e9 00 00 00 00	 jmp	 ___CxxFrameHandler3
text$x	ENDS
??$addressof@V?$_String_val@U?$_Simple_types@D@std@@@std@@@std@@YAPAV?$_String_val@U?$_Simple_types@D@std@@@0@AAV10@@Z ENDP ; std::addressof<std::_String_val<std::_Simple_types<char> > >
; Function compile flags: /Odtp /RTCsu /ZI
; File C:\Program Files (x86)\Microsoft Visual Studio\2019\Community\VC\Tools\MSVC\14.23.28105\include\xmemory
;	COMDAT ??$_Get_size_of_n@$07@std@@YAII@Z
_TEXT	SEGMENT
__Max_possible$1 = -20					; size = 4
__Overflow_is_possible$ = -5				; size = 1
__Count$ = 8						; size = 4
??$_Get_size_of_n@$07@std@@YAII@Z PROC			; std::_Get_size_of_n<8>, COMDAT

; 24   : _NODISCARD constexpr size_t _Get_size_of_n(const size_t _Count) {

  00000	55		 push	 ebp
  00001	8b ec		 mov	 ebp, esp
  00003	81 ec d8 00 00
	00		 sub	 esp, 216		; 000000d8H
  00009	53		 push	 ebx
  0000a	56		 push	 esi
  0000b	57		 push	 edi
  0000c	8d bd 28 ff ff
	ff		 lea	 edi, DWORD PTR [ebp-216]
  00012	b9 36 00 00 00	 mov	 ecx, 54			; 00000036H
  00017	b8 cc cc cc cc	 mov	 eax, -858993460		; ccccccccH
  0001c	f3 ab		 rep stosd
  0001e	b9 00 00 00 00	 mov	 ecx, OFFSET __DB4EB944_xmemory
  00023	e8 00 00 00 00	 call	 @__CheckForDebuggerJustMyCode@4

; 25   :     constexpr bool _Overflow_is_possible = _Ty_size > 1;

  00028	c6 45 fb 01	 mov	 BYTE PTR __Overflow_is_possible$[ebp], 1

; 26   : 
; 27   :     if
; 28   :         _CONSTEXPR_IF(_Overflow_is_possible) {
; 29   :             constexpr size_t _Max_possible = static_cast<size_t>(-1) / _Ty_size;

  0002c	c7 45 ec ff ff
	ff 1f		 mov	 DWORD PTR __Max_possible$1[ebp], 536870911 ; 1fffffffH

; 30   :             if (_Count > _Max_possible) {

  00033	81 7d 08 ff ff
	ff 1f		 cmp	 DWORD PTR __Count$[ebp], 536870911 ; 1fffffffH
  0003a	76 05		 jbe	 SHORT $LN2@Get_size_o

; 31   :                 _Throw_bad_array_new_length(); // multiply overflow

  0003c	e8 00 00 00 00	 call	 ?_Throw_bad_array_new_length@std@@YAXXZ ; std::_Throw_bad_array_new_length
$LN2@Get_size_o:

; 32   :             }
; 33   :         }
; 34   : 
; 35   :     return _Count * _Ty_size;

  00041	8b 45 08	 mov	 eax, DWORD PTR __Count$[ebp]
  00044	c1 e0 03	 shl	 eax, 3
$LN3@Get_size_o:

; 36   : }

  00047	5f		 pop	 edi
  00048	5e		 pop	 esi
  00049	5b		 pop	 ebx
  0004a	81 c4 d8 00 00
	00		 add	 esp, 216		; 000000d8H
  00050	3b ec		 cmp	 ebp, esp
  00052	e8 00 00 00 00	 call	 __RTC_CheckEsp
  00057	8b e5		 mov	 esp, ebp
  00059	5d		 pop	 ebp
  0005a	c3		 ret	 0
??$_Get_size_of_n@$07@std@@YAII@Z ENDP			; std::_Get_size_of_n<8>
_TEXT	ENDS
; Function compile flags: /Odtp /RTCsu /ZI
; File C:\Program Files (x86)\Microsoft Visual Studio\2019\Community\VC\Tools\MSVC\14.23.28105\include\xmemory
;	COMDAT ??$_Deallocate@$07$0A@@std@@YAXPAXI@Z
_TEXT	SEGMENT
__$EHRec$ = -12						; size = 12
__Ptr$ = 8						; size = 4
__Bytes$ = 12						; size = 4
??$_Deallocate@$07$0A@@std@@YAXPAXI@Z PROC		; std::_Deallocate<8,0>, COMDAT

; 183  : void _Deallocate(void* _Ptr, size_t _Bytes) noexcept {

  00000	55		 push	 ebp
  00001	8b ec		 mov	 ebp, esp
  00003	6a ff		 push	 -1
  00005	68 00 00 00 00	 push	 __ehhandler$??$_Deallocate@$07$0A@@std@@YAXPAXI@Z
  0000a	64 a1 00 00 00
	00		 mov	 eax, DWORD PTR fs:0
  00010	50		 push	 eax
  00011	81 ec c0 00 00
	00		 sub	 esp, 192		; 000000c0H
  00017	53		 push	 ebx
  00018	56		 push	 esi
  00019	57		 push	 edi
  0001a	8d bd 34 ff ff
	ff		 lea	 edi, DWORD PTR [ebp-204]
  00020	b9 30 00 00 00	 mov	 ecx, 48			; 00000030H
  00025	b8 cc cc cc cc	 mov	 eax, -858993460		; ccccccccH
  0002a	f3 ab		 rep stosd
  0002c	a1 00 00 00 00	 mov	 eax, DWORD PTR ___security_cookie
  00031	33 c5		 xor	 eax, ebp
  00033	50		 push	 eax
  00034	8d 45 f4	 lea	 eax, DWORD PTR __$EHRec$[ebp]
  00037	64 a3 00 00 00
	00		 mov	 DWORD PTR fs:0, eax
  0003d	b9 00 00 00 00	 mov	 ecx, OFFSET __DB4EB944_xmemory
  00042	e8 00 00 00 00	 call	 @__CheckForDebuggerJustMyCode@4

; 184  :     // deallocate storage allocated by _Allocate when !_HAS_ALIGNED_NEW || _Align <= __STDCPP_DEFAULT_NEW_ALIGNMENT__
; 185  : #if defined(_M_IX86) || defined(_M_X64)
; 186  :     if (_Bytes >= _Big_allocation_threshold) { // boost the alignment of big allocations to help autovectorization

  00047	81 7d 0c 00 10
	00 00		 cmp	 DWORD PTR __Bytes$[ebp], 4096 ; 00001000H
  0004e	72 10		 jb	 SHORT $LN2@Deallocate

; 187  :         _Adjust_manually_vector_aligned(_Ptr, _Bytes);

  00050	8d 45 0c	 lea	 eax, DWORD PTR __Bytes$[ebp]
  00053	50		 push	 eax
  00054	8d 4d 08	 lea	 ecx, DWORD PTR __Ptr$[ebp]
  00057	51		 push	 ecx
  00058	e8 00 00 00 00	 call	 ?_Adjust_manually_vector_aligned@std@@YAXAAPAXAAI@Z ; std::_Adjust_manually_vector_aligned
  0005d	83 c4 08	 add	 esp, 8
$LN2@Deallocate:

; 188  :     }
; 189  : #endif // defined(_M_IX86) || defined(_M_X64)
; 190  : 
; 191  :     ::operator delete(_Ptr, _Bytes);

  00060	8b 45 0c	 mov	 eax, DWORD PTR __Bytes$[ebp]
  00063	50		 push	 eax
  00064	8b 4d 08	 mov	 ecx, DWORD PTR __Ptr$[ebp]
  00067	51		 push	 ecx
  00068	e8 00 00 00 00	 call	 ??3@YAXPAXI@Z		; operator delete
  0006d	83 c4 08	 add	 esp, 8

; 192  : }

  00070	8b 4d f4	 mov	 ecx, DWORD PTR __$EHRec$[ebp]
  00073	64 89 0d 00 00
	00 00		 mov	 DWORD PTR fs:0, ecx
  0007a	59		 pop	 ecx
  0007b	5f		 pop	 edi
  0007c	5e		 pop	 esi
  0007d	5b		 pop	 ebx
  0007e	81 c4 cc 00 00
	00		 add	 esp, 204		; 000000ccH
  00084	3b ec		 cmp	 ebp, esp
  00086	e8 00 00 00 00	 call	 __RTC_CheckEsp
  0008b	8b e5		 mov	 esp, ebp
  0008d	5d		 pop	 ebp
  0008e	c3		 ret	 0
_TEXT	ENDS
;	COMDAT text$x
text$x	SEGMENT
__ehhandler$??$_Deallocate@$07$0A@@std@@YAXPAXI@Z:
  00000	8b 54 24 08	 mov	 edx, DWORD PTR [esp+8]
  00004	8d 42 0c	 lea	 eax, DWORD PTR [edx+12]
  00007	8b 8a 30 ff ff
	ff		 mov	 ecx, DWORD PTR [edx-208]
  0000d	33 c8		 xor	 ecx, eax
  0000f	e8 00 00 00 00	 call	 @__security_check_cookie@4
  00014	b8 00 00 00 00	 mov	 eax, OFFSET __ehfuncinfo$??$_Deallocate@$07$0A@@std@@YAXPAXI@Z
  00019	e9 00 00 00 00	 jmp	 ___CxxFrameHandler3
text$x	ENDS
??$_Deallocate@$07$0A@@std@@YAXPAXI@Z ENDP		; std::_Deallocate<8,0>
; Function compile flags: /Odtp /RTCsu /ZI
; File C:\Program Files (x86)\Microsoft Visual Studio\2019\Community\VC\Tools\MSVC\14.23.28105\include\xmemory
;	COMDAT ??$_Allocate@$07U_Default_allocate_traits@std@@$0A@@std@@YAPAXI@Z
_TEXT	SEGMENT
__Bytes$ = 8						; size = 4
??$_Allocate@$07U_Default_allocate_traits@std@@$0A@@std@@YAPAXI@Z PROC ; std::_Allocate<8,std::_Default_allocate_traits,0>, COMDAT

; 167  : _DECLSPEC_ALLOCATOR void* _Allocate(const size_t _Bytes) {

  00000	55		 push	 ebp
  00001	8b ec		 mov	 ebp, esp
  00003	81 ec c0 00 00
	00		 sub	 esp, 192		; 000000c0H
  00009	53		 push	 ebx
  0000a	56		 push	 esi
  0000b	57		 push	 edi
  0000c	8d bd 40 ff ff
	ff		 lea	 edi, DWORD PTR [ebp-192]
  00012	b9 30 00 00 00	 mov	 ecx, 48			; 00000030H
  00017	b8 cc cc cc cc	 mov	 eax, -858993460		; ccccccccH
  0001c	f3 ab		 rep stosd
  0001e	b9 00 00 00 00	 mov	 ecx, OFFSET __DB4EB944_xmemory
  00023	e8 00 00 00 00	 call	 @__CheckForDebuggerJustMyCode@4

; 168  :     // allocate _Bytes when !_HAS_ALIGNED_NEW || _Align <= __STDCPP_DEFAULT_NEW_ALIGNMENT__
; 169  : #if defined(_M_IX86) || defined(_M_X64)
; 170  :     if (_Bytes >= _Big_allocation_threshold) { // boost the alignment of big allocations to help autovectorization

  00028	81 7d 08 00 10
	00 00		 cmp	 DWORD PTR __Bytes$[ebp], 4096 ; 00001000H
  0002f	72 0e		 jb	 SHORT $LN2@Allocate

; 171  :         return _Allocate_manually_vector_aligned<_Traits>(_Bytes);

  00031	8b 45 08	 mov	 eax, DWORD PTR __Bytes$[ebp]
  00034	50		 push	 eax
  00035	e8 00 00 00 00	 call	 ??$_Allocate_manually_vector_aligned@U_Default_allocate_traits@std@@@std@@YAPAXI@Z ; std::_Allocate_manually_vector_aligned<std::_Default_allocate_traits>
  0003a	83 c4 04	 add	 esp, 4
  0003d	eb 16		 jmp	 SHORT $LN1@Allocate
$LN2@Allocate:

; 172  :     }
; 173  : #endif // defined(_M_IX86) || defined(_M_X64)
; 174  : 
; 175  :     if (_Bytes != 0) {

  0003f	83 7d 08 00	 cmp	 DWORD PTR __Bytes$[ebp], 0
  00043	74 0e		 je	 SHORT $LN3@Allocate

; 176  :         return _Traits::_Allocate(_Bytes);

  00045	8b 45 08	 mov	 eax, DWORD PTR __Bytes$[ebp]
  00048	50		 push	 eax
  00049	e8 00 00 00 00	 call	 ?_Allocate@_Default_allocate_traits@std@@SAPAXI@Z ; std::_Default_allocate_traits::_Allocate
  0004e	83 c4 04	 add	 esp, 4
  00051	eb 02		 jmp	 SHORT $LN1@Allocate
$LN3@Allocate:

; 177  :     }
; 178  : 
; 179  :     return nullptr;

  00053	33 c0		 xor	 eax, eax
$LN1@Allocate:

; 180  : }

  00055	5f		 pop	 edi
  00056	5e		 pop	 esi
  00057	5b		 pop	 ebx
  00058	81 c4 c0 00 00
	00		 add	 esp, 192		; 000000c0H
  0005e	3b ec		 cmp	 ebp, esp
  00060	e8 00 00 00 00	 call	 __RTC_CheckEsp
  00065	8b e5		 mov	 esp, ebp
  00067	5d		 pop	 ebp
  00068	c3		 ret	 0
??$_Allocate@$07U_Default_allocate_traits@std@@$0A@@std@@YAPAXI@Z ENDP ; std::_Allocate<8,std::_Default_allocate_traits,0>
_TEXT	ENDS
; Function compile flags: /Odtp /RTCsu /ZI
; File C:\Program Files (x86)\Microsoft Visual Studio\2019\Community\VC\Tools\MSVC\14.23.28105\include\xmemory
;	COMDAT ??$_Get_size_of_n@$00@std@@YAII@Z
_TEXT	SEGMENT
__Overflow_is_possible$ = -5				; size = 1
__Count$ = 8						; size = 4
??$_Get_size_of_n@$00@std@@YAII@Z PROC			; std::_Get_size_of_n<1>, COMDAT

; 24   : _NODISCARD constexpr size_t _Get_size_of_n(const size_t _Count) {

  00000	55		 push	 ebp
  00001	8b ec		 mov	 ebp, esp
  00003	81 ec cc 00 00
	00		 sub	 esp, 204		; 000000ccH
  00009	53		 push	 ebx
  0000a	56		 push	 esi
  0000b	57		 push	 edi
  0000c	8d bd 34 ff ff
	ff		 lea	 edi, DWORD PTR [ebp-204]
  00012	b9 33 00 00 00	 mov	 ecx, 51			; 00000033H
  00017	b8 cc cc cc cc	 mov	 eax, -858993460		; ccccccccH
  0001c	f3 ab		 rep stosd
  0001e	b9 00 00 00 00	 mov	 ecx, OFFSET __DB4EB944_xmemory
  00023	e8 00 00 00 00	 call	 @__CheckForDebuggerJustMyCode@4

; 25   :     constexpr bool _Overflow_is_possible = _Ty_size > 1;

  00028	c6 45 fb 00	 mov	 BYTE PTR __Overflow_is_possible$[ebp], 0

; 26   : 
; 27   :     if
; 28   :         _CONSTEXPR_IF(_Overflow_is_possible) {
; 29   :             constexpr size_t _Max_possible = static_cast<size_t>(-1) / _Ty_size;
; 30   :             if (_Count > _Max_possible) {
; 31   :                 _Throw_bad_array_new_length(); // multiply overflow
; 32   :             }
; 33   :         }
; 34   : 
; 35   :     return _Count * _Ty_size;

  0002c	8b 45 08	 mov	 eax, DWORD PTR __Count$[ebp]

; 36   : }

  0002f	5f		 pop	 edi
  00030	5e		 pop	 esi
  00031	5b		 pop	 ebx
  00032	81 c4 cc 00 00
	00		 add	 esp, 204		; 000000ccH
  00038	3b ec		 cmp	 ebp, esp
  0003a	e8 00 00 00 00	 call	 __RTC_CheckEsp
  0003f	8b e5		 mov	 esp, ebp
  00041	5d		 pop	 ebp
  00042	c3		 ret	 0
??$_Get_size_of_n@$00@std@@YAII@Z ENDP			; std::_Get_size_of_n<1>
_TEXT	ENDS
; Function compile flags: /Odtp /RTCsu /ZI
; File C:\Program Files (x86)\Microsoft Visual Studio\2019\Community\VC\Tools\MSVC\14.23.28105\include\xmemory
;	COMDAT ??$_Construct_in_place@PADABQAD@std@@YAXAAPADABQAD@Z
_TEXT	SEGMENT
$T2 = -212						; size = 4
__$EHRec$ = -12						; size = 12
__Obj$ = 8						; size = 4
_<_Args_0>$ = 12					; size = 4
??$_Construct_in_place@PADABQAD@std@@YAXAAPADABQAD@Z PROC ; std::_Construct_in_place<char *,char * const &>, COMDAT

; 198  : void _Construct_in_place(_Ty& _Obj, _Types&&... _Args) _NOEXCEPT_COND(is_nothrow_constructible_v<_Ty, _Types...>) {

  00000	55		 push	 ebp
  00001	8b ec		 mov	 ebp, esp
  00003	6a ff		 push	 -1
  00005	68 00 00 00 00	 push	 __ehhandler$??$_Construct_in_place@PADABQAD@std@@YAXAAPADABQAD@Z
  0000a	64 a1 00 00 00
	00		 mov	 eax, DWORD PTR fs:0
  00010	50		 push	 eax
  00011	81 ec cc 00 00
	00		 sub	 esp, 204		; 000000ccH
  00017	53		 push	 ebx
  00018	56		 push	 esi
  00019	57		 push	 edi
  0001a	8d bd 28 ff ff
	ff		 lea	 edi, DWORD PTR [ebp-216]
  00020	b9 33 00 00 00	 mov	 ecx, 51			; 00000033H
  00025	b8 cc cc cc cc	 mov	 eax, -858993460		; ccccccccH
  0002a	f3 ab		 rep stosd
  0002c	a1 00 00 00 00	 mov	 eax, DWORD PTR ___security_cookie
  00031	33 c5		 xor	 eax, ebp
  00033	50		 push	 eax
  00034	8d 45 f4	 lea	 eax, DWORD PTR __$EHRec$[ebp]
  00037	64 a3 00 00 00
	00		 mov	 DWORD PTR fs:0, eax
  0003d	b9 00 00 00 00	 mov	 ecx, OFFSET __DB4EB944_xmemory
  00042	e8 00 00 00 00	 call	 @__CheckForDebuggerJustMyCode@4
  00047	8b 45 08	 mov	 eax, DWORD PTR __Obj$[ebp]
  0004a	50		 push	 eax
  0004b	e8 00 00 00 00	 call	 ??$addressof@PAD@std@@YAPAPADAAPAD@Z ; std::addressof<char *>
  00050	83 c4 04	 add	 esp, 4
  00053	50		 push	 eax
  00054	6a 04		 push	 4
  00056	e8 00 00 00 00	 call	 ??2@YAPAXIPAX@Z		; operator new
  0005b	83 c4 08	 add	 esp, 8
  0005e	89 85 2c ff ff
	ff		 mov	 DWORD PTR $T2[ebp], eax
  00064	8b 4d 0c	 mov	 ecx, DWORD PTR _<_Args_0>$[ebp]
  00067	51		 push	 ecx
  00068	e8 00 00 00 00	 call	 ??$forward@ABQAD@std@@YAABQADABQAD@Z ; std::forward<char * const &>
  0006d	83 c4 04	 add	 esp, 4
  00070	8b 95 2c ff ff
	ff		 mov	 edx, DWORD PTR $T2[ebp]
  00076	8b 00		 mov	 eax, DWORD PTR [eax]
  00078	89 02		 mov	 DWORD PTR [edx], eax

; 199  :     ::new (const_cast<void*>(static_cast<const volatile void*>(_STD addressof(_Obj))))
; 200  :         _Ty(_STD forward<_Types>(_Args)...);
; 201  : }

  0007a	8b 4d f4	 mov	 ecx, DWORD PTR __$EHRec$[ebp]
  0007d	64 89 0d 00 00
	00 00		 mov	 DWORD PTR fs:0, ecx
  00084	59		 pop	 ecx
  00085	5f		 pop	 edi
  00086	5e		 pop	 esi
  00087	5b		 pop	 ebx
  00088	81 c4 d8 00 00
	00		 add	 esp, 216		; 000000d8H
  0008e	3b ec		 cmp	 ebp, esp
  00090	e8 00 00 00 00	 call	 __RTC_CheckEsp
  00095	8b e5		 mov	 esp, ebp
  00097	5d		 pop	 ebp
  00098	c3		 ret	 0
_TEXT	ENDS
;	COMDAT text$x
text$x	SEGMENT
__ehhandler$??$_Construct_in_place@PADABQAD@std@@YAXAAPADABQAD@Z:
  00000	8b 54 24 08	 mov	 edx, DWORD PTR [esp+8]
  00004	8d 42 0c	 lea	 eax, DWORD PTR [edx+12]
  00007	8b 8a 24 ff ff
	ff		 mov	 ecx, DWORD PTR [edx-220]
  0000d	33 c8		 xor	 ecx, eax
  0000f	e8 00 00 00 00	 call	 @__security_check_cookie@4
  00014	b8 00 00 00 00	 mov	 eax, OFFSET __ehfuncinfo$??$_Construct_in_place@PADABQAD@std@@YAXAAPADABQAD@Z
  00019	e9 00 00 00 00	 jmp	 ___CxxFrameHandler3
text$x	ENDS
??$_Construct_in_place@PADABQAD@std@@YAXAAPADABQAD@Z ENDP ; std::_Construct_in_place<char *,char * const &>
; Function compile flags: /Odtp /RTCsu /ZI
; File C:\Program Files (x86)\Microsoft Visual Studio\2019\Community\VC\Tools\MSVC\14.23.28105\include\xstring
;	COMDAT ??$_Reallocate_grow_by@V<lambda_ab246b20b9526e2ef7792587e4298a77>@@PBDI@?$basic_string@DU?$char_traits@D@std@@V?$allocator@D@2@@std@@AAEAAV01@IV<lambda_ab246b20b9526e2ef7792587e4298a77>@@PBDI@Z
_TEXT	SEGMENT
__Old_ptr$1 = -120					; size = 4
__Raw_new$ = -108					; size = 4
__New_ptr$ = -96					; size = 4
__Al$ = -84						; size = 4
__New_capacity$ = -72					; size = 4
__Old_capacity$ = -60					; size = 4
__New_size$ = -48					; size = 4
__Old_size$ = -36					; size = 4
__My_data$ = -24					; size = 4
_this$ = -12						; size = 4
__$ArrayPad$ = -4					; size = 4
__Size_increase$ = 8					; size = 4
__Fn$ = 12						; size = 1
_<_Args_0>$ = 16					; size = 4
_<_Args_1>$ = 20					; size = 4
??$_Reallocate_grow_by@V<lambda_ab246b20b9526e2ef7792587e4298a77>@@PBDI@?$basic_string@DU?$char_traits@D@std@@V?$allocator@D@2@@std@@AAEAAV01@IV<lambda_ab246b20b9526e2ef7792587e4298a77>@@PBDI@Z PROC ; std::basic_string<char,std::char_traits<char>,std::allocator<char> >::_Reallocate_grow_by<<lambda_ab246b20b9526e2ef7792587e4298a77>,char const *,unsigned int>, COMDAT
; _this$ = ecx

; 4108 :     basic_string& _Reallocate_grow_by(const size_type _Size_increase, _Fty _Fn, _ArgTys... _Args) {

  00000	55		 push	 ebp
  00001	8b ec		 mov	 ebp, esp
  00003	81 ec 3c 01 00
	00		 sub	 esp, 316		; 0000013cH
  00009	53		 push	 ebx
  0000a	56		 push	 esi
  0000b	57		 push	 edi
  0000c	51		 push	 ecx
  0000d	8d bd c4 fe ff
	ff		 lea	 edi, DWORD PTR [ebp-316]
  00013	b9 4f 00 00 00	 mov	 ecx, 79			; 0000004fH
  00018	b8 cc cc cc cc	 mov	 eax, -858993460		; ccccccccH
  0001d	f3 ab		 rep stosd
  0001f	59		 pop	 ecx
  00020	a1 00 00 00 00	 mov	 eax, DWORD PTR ___security_cookie
  00025	33 c5		 xor	 eax, ebp
  00027	89 45 fc	 mov	 DWORD PTR __$ArrayPad$[ebp], eax
  0002a	89 4d f4	 mov	 DWORD PTR _this$[ebp], ecx
  0002d	b9 00 00 00 00	 mov	 ecx, OFFSET __AF9D3FD8_xstring
  00032	e8 00 00 00 00	 call	 @__CheckForDebuggerJustMyCode@4

; 4109 :         // reallocate to increase size by _Size_increase elements, new buffer prepared by
; 4110 :         // _Fn(_New_ptr, _Old_ptr, _Old_size, _Args...)
; 4111 :         auto& _My_data            = _Mypair._Myval2;

  00037	8b 45 f4	 mov	 eax, DWORD PTR _this$[ebp]
  0003a	89 45 e8	 mov	 DWORD PTR __My_data$[ebp], eax

; 4112 :         const size_type _Old_size = _My_data._Mysize;

  0003d	8b 45 e8	 mov	 eax, DWORD PTR __My_data$[ebp]
  00040	8b 48 14	 mov	 ecx, DWORD PTR [eax+20]
  00043	89 4d dc	 mov	 DWORD PTR __Old_size$[ebp], ecx

; 4113 :         if (max_size() - _Old_size < _Size_increase) {

  00046	8b 4d f4	 mov	 ecx, DWORD PTR _this$[ebp]
  00049	e8 00 00 00 00	 call	 ?max_size@?$basic_string@DU?$char_traits@D@std@@V?$allocator@D@2@@std@@QBEIXZ ; std::basic_string<char,std::char_traits<char>,std::allocator<char> >::max_size
  0004e	2b 45 dc	 sub	 eax, DWORD PTR __Old_size$[ebp]
  00051	3b 45 08	 cmp	 eax, DWORD PTR __Size_increase$[ebp]
  00054	73 05		 jae	 SHORT $LN2@Reallocate

; 4114 :             _Xlen(); // result too long

  00056	e8 00 00 00 00	 call	 ?_Xlen@?$basic_string@DU?$char_traits@D@std@@V?$allocator@D@2@@std@@CAXXZ ; std::basic_string<char,std::char_traits<char>,std::allocator<char> >::_Xlen
$LN2@Reallocate:

; 4115 :         }
; 4116 : 
; 4117 :         const size_type _New_size     = _Old_size + _Size_increase;

  0005b	8b 45 dc	 mov	 eax, DWORD PTR __Old_size$[ebp]
  0005e	03 45 08	 add	 eax, DWORD PTR __Size_increase$[ebp]
  00061	89 45 d0	 mov	 DWORD PTR __New_size$[ebp], eax

; 4118 :         const size_type _Old_capacity = _My_data._Myres;

  00064	8b 45 e8	 mov	 eax, DWORD PTR __My_data$[ebp]
  00067	8b 48 18	 mov	 ecx, DWORD PTR [eax+24]
  0006a	89 4d c4	 mov	 DWORD PTR __Old_capacity$[ebp], ecx

; 4119 :         const size_type _New_capacity = _Calculate_growth(_New_size);

  0006d	8b 45 d0	 mov	 eax, DWORD PTR __New_size$[ebp]
  00070	50		 push	 eax
  00071	8b 4d f4	 mov	 ecx, DWORD PTR _this$[ebp]
  00074	e8 00 00 00 00	 call	 ?_Calculate_growth@?$basic_string@DU?$char_traits@D@std@@V?$allocator@D@2@@std@@ABEII@Z ; std::basic_string<char,std::char_traits<char>,std::allocator<char> >::_Calculate_growth
  00079	89 45 b8	 mov	 DWORD PTR __New_capacity$[ebp], eax

; 4120 :         auto& _Al                     = _Getal();

  0007c	8b 4d f4	 mov	 ecx, DWORD PTR _this$[ebp]
  0007f	e8 00 00 00 00	 call	 ?_Getal@?$basic_string@DU?$char_traits@D@std@@V?$allocator@D@2@@std@@AAEAAV?$allocator@D@2@XZ ; std::basic_string<char,std::char_traits<char>,std::allocator<char> >::_Getal
  00084	89 45 ac	 mov	 DWORD PTR __Al$[ebp], eax

; 4121 :         const pointer _New_ptr        = _Al.allocate(_New_capacity + 1); // throws

  00087	33 c0		 xor	 eax, eax
  00089	8b 4d b8	 mov	 ecx, DWORD PTR __New_capacity$[ebp]
  0008c	83 c1 01	 add	 ecx, 1
  0008f	0f 92 c0	 setb	 al
  00092	f7 d8		 neg	 eax
  00094	0b c1		 or	 eax, ecx
  00096	50		 push	 eax
  00097	8b 4d ac	 mov	 ecx, DWORD PTR __Al$[ebp]
  0009a	e8 00 00 00 00	 call	 ?allocate@?$allocator@D@std@@QAEPADI@Z ; std::allocator<char>::allocate
  0009f	89 45 a0	 mov	 DWORD PTR __New_ptr$[ebp], eax

; 4122 :         _My_data._Orphan_all();

  000a2	8b 4d e8	 mov	 ecx, DWORD PTR __My_data$[ebp]
  000a5	e8 00 00 00 00	 call	 ?_Orphan_all@_Container_base12@std@@QAEXXZ ; std::_Container_base12::_Orphan_all

; 4123 :         _My_data._Mysize      = _New_size;

  000aa	8b 45 e8	 mov	 eax, DWORD PTR __My_data$[ebp]
  000ad	8b 4d d0	 mov	 ecx, DWORD PTR __New_size$[ebp]
  000b0	89 48 14	 mov	 DWORD PTR [eax+20], ecx

; 4124 :         _My_data._Myres       = _New_capacity;

  000b3	8b 45 e8	 mov	 eax, DWORD PTR __My_data$[ebp]
  000b6	8b 4d b8	 mov	 ecx, DWORD PTR __New_capacity$[ebp]
  000b9	89 48 18	 mov	 DWORD PTR [eax+24], ecx

; 4125 :         _Elem* const _Raw_new = _Unfancy(_New_ptr);

  000bc	8b 45 a0	 mov	 eax, DWORD PTR __New_ptr$[ebp]
  000bf	50		 push	 eax
  000c0	e8 00 00 00 00	 call	 ??$_Unfancy@D@std@@YAPADPAD@Z ; std::_Unfancy<char>
  000c5	83 c4 04	 add	 esp, 4
  000c8	89 45 94	 mov	 DWORD PTR __Raw_new$[ebp], eax

; 4126 :         if (_BUF_SIZE <= _Old_capacity) {

  000cb	83 7d c4 10	 cmp	 DWORD PTR __Old_capacity$[ebp], 16 ; 00000010H
  000cf	72 4c		 jb	 SHORT $LN3@Reallocate

; 4127 :             const pointer _Old_ptr = _My_data._Bx._Ptr;

  000d1	8b 45 e8	 mov	 eax, DWORD PTR __My_data$[ebp]
  000d4	8b 48 04	 mov	 ecx, DWORD PTR [eax+4]
  000d7	89 4d 88	 mov	 DWORD PTR __Old_ptr$1[ebp], ecx

; 4128 :             _Fn(_Raw_new, _Unfancy(_Old_ptr), _Old_size, _Args...);

  000da	8b 45 14	 mov	 eax, DWORD PTR _<_Args_1>$[ebp]
  000dd	50		 push	 eax
  000de	8b 4d 10	 mov	 ecx, DWORD PTR _<_Args_0>$[ebp]
  000e1	51		 push	 ecx
  000e2	8b 55 dc	 mov	 edx, DWORD PTR __Old_size$[ebp]
  000e5	52		 push	 edx
  000e6	8b 45 88	 mov	 eax, DWORD PTR __Old_ptr$1[ebp]
  000e9	50		 push	 eax
  000ea	e8 00 00 00 00	 call	 ??$_Unfancy@D@std@@YAPADPAD@Z ; std::_Unfancy<char>
  000ef	83 c4 04	 add	 esp, 4
  000f2	50		 push	 eax
  000f3	8b 4d 94	 mov	 ecx, DWORD PTR __Raw_new$[ebp]
  000f6	51		 push	 ecx
  000f7	8d 4d 0c	 lea	 ecx, DWORD PTR __Fn$[ebp]
  000fa	e8 00 00 00 00	 call	 ??R<lambda_ab246b20b9526e2ef7792587e4298a77>@@QBEXQADQBDI1I@Z ; <lambda_ab246b20b9526e2ef7792587e4298a77>::operator()

; 4129 :             _Al.deallocate(_Old_ptr, _Old_capacity + 1);

  000ff	8b 45 c4	 mov	 eax, DWORD PTR __Old_capacity$[ebp]
  00102	83 c0 01	 add	 eax, 1
  00105	50		 push	 eax
  00106	8b 4d 88	 mov	 ecx, DWORD PTR __Old_ptr$1[ebp]
  00109	51		 push	 ecx
  0010a	8b 4d ac	 mov	 ecx, DWORD PTR __Al$[ebp]
  0010d	e8 00 00 00 00	 call	 ?deallocate@?$allocator@D@std@@QAEXQADI@Z ; std::allocator<char>::deallocate

; 4130 :             _My_data._Bx._Ptr = _New_ptr;

  00112	8b 45 e8	 mov	 eax, DWORD PTR __My_data$[ebp]
  00115	8b 4d a0	 mov	 ecx, DWORD PTR __New_ptr$[ebp]
  00118	89 48 04	 mov	 DWORD PTR [eax+4], ecx

; 4131 :         } else {

  0011b	eb 32		 jmp	 SHORT $LN4@Reallocate
$LN3@Reallocate:

; 4132 :             _Fn(_Raw_new, _My_data._Bx._Buf, _Old_size, _Args...);

  0011d	8b 45 14	 mov	 eax, DWORD PTR _<_Args_1>$[ebp]
  00120	50		 push	 eax
  00121	8b 4d 10	 mov	 ecx, DWORD PTR _<_Args_0>$[ebp]
  00124	51		 push	 ecx
  00125	8b 55 dc	 mov	 edx, DWORD PTR __Old_size$[ebp]
  00128	52		 push	 edx
  00129	8b 45 e8	 mov	 eax, DWORD PTR __My_data$[ebp]
  0012c	83 c0 04	 add	 eax, 4
  0012f	50		 push	 eax
  00130	8b 4d 94	 mov	 ecx, DWORD PTR __Raw_new$[ebp]
  00133	51		 push	 ecx
  00134	8d 4d 0c	 lea	 ecx, DWORD PTR __Fn$[ebp]
  00137	e8 00 00 00 00	 call	 ??R<lambda_ab246b20b9526e2ef7792587e4298a77>@@QBEXQADQBDI1I@Z ; <lambda_ab246b20b9526e2ef7792587e4298a77>::operator()

; 4133 :             _Construct_in_place(_My_data._Bx._Ptr, _New_ptr);

  0013c	8d 45 a0	 lea	 eax, DWORD PTR __New_ptr$[ebp]
  0013f	50		 push	 eax
  00140	8b 4d e8	 mov	 ecx, DWORD PTR __My_data$[ebp]
  00143	83 c1 04	 add	 ecx, 4
  00146	51		 push	 ecx
  00147	e8 00 00 00 00	 call	 ??$_Construct_in_place@PADABQAD@std@@YAXAAPADABQAD@Z ; std::_Construct_in_place<char *,char * const &>
  0014c	83 c4 08	 add	 esp, 8
$LN4@Reallocate:

; 4134 :         }
; 4135 : 
; 4136 :         return *this;

  0014f	8b 45 f4	 mov	 eax, DWORD PTR _this$[ebp]
$LN5@Reallocate:

; 4137 :     }

  00152	52		 push	 edx
  00153	8b cd		 mov	 ecx, ebp
  00155	50		 push	 eax
  00156	8d 15 00 00 00
	00		 lea	 edx, DWORD PTR $LN8@Reallocate
  0015c	e8 00 00 00 00	 call	 @_RTC_CheckStackVars@8
  00161	58		 pop	 eax
  00162	5a		 pop	 edx
  00163	5f		 pop	 edi
  00164	5e		 pop	 esi
  00165	5b		 pop	 ebx
  00166	8b 4d fc	 mov	 ecx, DWORD PTR __$ArrayPad$[ebp]
  00169	33 cd		 xor	 ecx, ebp
  0016b	e8 00 00 00 00	 call	 @__security_check_cookie@4
  00170	81 c4 3c 01 00
	00		 add	 esp, 316		; 0000013cH
  00176	3b ec		 cmp	 ebp, esp
  00178	e8 00 00 00 00	 call	 __RTC_CheckEsp
  0017d	8b e5		 mov	 esp, ebp
  0017f	5d		 pop	 ebp
  00180	c2 10 00	 ret	 16			; 00000010H
  00183	90		 npad	 1
$LN8@Reallocate:
  00184	01 00 00 00	 DD	 1
  00188	00 00 00 00	 DD	 $LN7@Reallocate
$LN7@Reallocate:
  0018c	a0 ff ff ff	 DD	 -96			; ffffffa0H
  00190	04 00 00 00	 DD	 4
  00194	00 00 00 00	 DD	 $LN6@Reallocate
$LN6@Reallocate:
  00198	5f		 DB	 95			; 0000005fH
  00199	4e		 DB	 78			; 0000004eH
  0019a	65		 DB	 101			; 00000065H
  0019b	77		 DB	 119			; 00000077H
  0019c	5f		 DB	 95			; 0000005fH
  0019d	70		 DB	 112			; 00000070H
  0019e	74		 DB	 116			; 00000074H
  0019f	72		 DB	 114			; 00000072H
  001a0	00		 DB	 0
??$_Reallocate_grow_by@V<lambda_ab246b20b9526e2ef7792587e4298a77>@@PBDI@?$basic_string@DU?$char_traits@D@std@@V?$allocator@D@2@@std@@AAEAAV01@IV<lambda_ab246b20b9526e2ef7792587e4298a77>@@PBDI@Z ENDP ; std::basic_string<char,std::char_traits<char>,std::allocator<char> >::_Reallocate_grow_by<<lambda_ab246b20b9526e2ef7792587e4298a77>,char const *,unsigned int>
_TEXT	ENDS
; Function compile flags: /Odtp /RTCsu /ZI
; File C:\Program Files (x86)\Microsoft Visual Studio\2019\Community\VC\Tools\MSVC\14.23.28105\include\xstring
;	COMDAT ??R<lambda_ab246b20b9526e2ef7792587e4298a77>@@QBEXQADQBDI1I@Z
_TEXT	SEGMENT
$T1 = -209						; size = 1
_this$ = -8						; size = 4
__New_ptr$ = 8						; size = 4
__Old_ptr$ = 12						; size = 4
__Old_size$ = 16					; size = 4
__Ptr$ = 20						; size = 4
__Count$ = 24						; size = 4
??R<lambda_ab246b20b9526e2ef7792587e4298a77>@@QBEXQADQBDI1I@Z PROC ; <lambda_ab246b20b9526e2ef7792587e4298a77>::operator(), COMDAT
; _this$ = ecx

; 2748 :                 const size_type _Count) {

  00000	55		 push	 ebp
  00001	8b ec		 mov	 ebp, esp
  00003	81 ec d8 00 00
	00		 sub	 esp, 216		; 000000d8H
  00009	53		 push	 ebx
  0000a	56		 push	 esi
  0000b	57		 push	 edi
  0000c	51		 push	 ecx
  0000d	8d bd 28 ff ff
	ff		 lea	 edi, DWORD PTR [ebp-216]
  00013	b9 36 00 00 00	 mov	 ecx, 54			; 00000036H
  00018	b8 cc cc cc cc	 mov	 eax, -858993460		; ccccccccH
  0001d	f3 ab		 rep stosd
  0001f	59		 pop	 ecx
  00020	89 4d f8	 mov	 DWORD PTR _this$[ebp], ecx
  00023	b9 00 00 00 00	 mov	 ecx, OFFSET __AF9D3FD8_xstring
  00028	e8 00 00 00 00	 call	 @__CheckForDebuggerJustMyCode@4

; 2749 :                 _Traits::copy(_New_ptr, _Old_ptr, _Old_size);

  0002d	8b 45 10	 mov	 eax, DWORD PTR __Old_size$[ebp]
  00030	50		 push	 eax
  00031	8b 4d 0c	 mov	 ecx, DWORD PTR __Old_ptr$[ebp]
  00034	51		 push	 ecx
  00035	8b 55 08	 mov	 edx, DWORD PTR __New_ptr$[ebp]
  00038	52		 push	 edx
  00039	e8 00 00 00 00	 call	 ?copy@?$_Narrow_char_traits@DH@std@@SAPADQADQBDI@Z ; std::_Narrow_char_traits<char,int>::copy
  0003e	83 c4 0c	 add	 esp, 12			; 0000000cH

; 2750 :                 _Traits::copy(_New_ptr + _Old_size, _Ptr, _Count);

  00041	8b 45 18	 mov	 eax, DWORD PTR __Count$[ebp]
  00044	50		 push	 eax
  00045	8b 4d 14	 mov	 ecx, DWORD PTR __Ptr$[ebp]
  00048	51		 push	 ecx
  00049	8b 55 08	 mov	 edx, DWORD PTR __New_ptr$[ebp]
  0004c	03 55 10	 add	 edx, DWORD PTR __Old_size$[ebp]
  0004f	52		 push	 edx
  00050	e8 00 00 00 00	 call	 ?copy@?$_Narrow_char_traits@DH@std@@SAPADQADQBDI@Z ; std::_Narrow_char_traits<char,int>::copy
  00055	83 c4 0c	 add	 esp, 12			; 0000000cH

; 2751 :                 _Traits::assign(_New_ptr[_Old_size + _Count], _Elem());

  00058	c6 85 2f ff ff
	ff 00		 mov	 BYTE PTR $T1[ebp], 0
  0005f	8d 85 2f ff ff
	ff		 lea	 eax, DWORD PTR $T1[ebp]
  00065	50		 push	 eax
  00066	8b 4d 10	 mov	 ecx, DWORD PTR __Old_size$[ebp]
  00069	03 4d 18	 add	 ecx, DWORD PTR __Count$[ebp]
  0006c	03 4d 08	 add	 ecx, DWORD PTR __New_ptr$[ebp]
  0006f	51		 push	 ecx
  00070	e8 00 00 00 00	 call	 ?assign@?$_Narrow_char_traits@DH@std@@SAXAADABD@Z ; std::_Narrow_char_traits<char,int>::assign
  00075	83 c4 08	 add	 esp, 8

; 2752 :             },

  00078	5f		 pop	 edi
  00079	5e		 pop	 esi
  0007a	5b		 pop	 ebx
  0007b	81 c4 d8 00 00
	00		 add	 esp, 216		; 000000d8H
  00081	3b ec		 cmp	 ebp, esp
  00083	e8 00 00 00 00	 call	 __RTC_CheckEsp
  00088	8b e5		 mov	 esp, ebp
  0008a	5d		 pop	 ebp
  0008b	c2 14 00	 ret	 20			; 00000014H
??R<lambda_ab246b20b9526e2ef7792587e4298a77>@@QBEXQADQBDI1I@Z ENDP ; <lambda_ab246b20b9526e2ef7792587e4298a77>::operator()
_TEXT	ENDS
; Function compile flags: /Odtp /RTCsu /ZI
; File C:\Program Files (x86)\Microsoft Visual Studio\2019\Community\VC\Tools\MSVC\14.23.28105\include\xstring
;	COMDAT ??$_Reallocate_for@V<lambda_9366063389c5f42a00a5088cf24e69de>@@PBD@?$basic_string@DU?$char_traits@D@std@@V?$allocator@D@2@@std@@AAEAAV01@IV<lambda_9366063389c5f42a00a5088cf24e69de>@@PBD@Z
_TEXT	SEGMENT
__New_ptr$ = -60					; size = 4
__Al$ = -48						; size = 4
__New_capacity$ = -36					; size = 4
__Old_capacity$ = -24					; size = 4
_this$ = -12						; size = 4
__$ArrayPad$ = -4					; size = 4
__New_size$ = 8						; size = 4
__Fn$ = 12						; size = 1
_<_Args_0>$ = 16					; size = 4
??$_Reallocate_for@V<lambda_9366063389c5f42a00a5088cf24e69de>@@PBD@?$basic_string@DU?$char_traits@D@std@@V?$allocator@D@2@@std@@AAEAAV01@IV<lambda_9366063389c5f42a00a5088cf24e69de>@@PBD@Z PROC ; std::basic_string<char,std::char_traits<char>,std::allocator<char> >::_Reallocate_for<<lambda_9366063389c5f42a00a5088cf24e69de>,char const *>, COMDAT
; _this$ = ecx

; 4082 :     basic_string& _Reallocate_for(const size_type _New_size, _Fty _Fn, _ArgTys... _Args) {

  00000	55		 push	 ebp
  00001	8b ec		 mov	 ebp, esp
  00003	81 ec 00 01 00
	00		 sub	 esp, 256		; 00000100H
  00009	53		 push	 ebx
  0000a	56		 push	 esi
  0000b	57		 push	 edi
  0000c	51		 push	 ecx
  0000d	8d bd 00 ff ff
	ff		 lea	 edi, DWORD PTR [ebp-256]
  00013	b9 40 00 00 00	 mov	 ecx, 64			; 00000040H
  00018	b8 cc cc cc cc	 mov	 eax, -858993460		; ccccccccH
  0001d	f3 ab		 rep stosd
  0001f	59		 pop	 ecx
  00020	a1 00 00 00 00	 mov	 eax, DWORD PTR ___security_cookie
  00025	33 c5		 xor	 eax, ebp
  00027	89 45 fc	 mov	 DWORD PTR __$ArrayPad$[ebp], eax
  0002a	89 4d f4	 mov	 DWORD PTR _this$[ebp], ecx
  0002d	b9 00 00 00 00	 mov	 ecx, OFFSET __AF9D3FD8_xstring
  00032	e8 00 00 00 00	 call	 @__CheckForDebuggerJustMyCode@4

; 4083 :         // reallocate to store exactly _New_size elements, new buffer prepared by
; 4084 :         // _Fn(_New_ptr, _New_size, _Args...)
; 4085 :         if (_New_size > max_size()) {

  00037	8b 4d f4	 mov	 ecx, DWORD PTR _this$[ebp]
  0003a	e8 00 00 00 00	 call	 ?max_size@?$basic_string@DU?$char_traits@D@std@@V?$allocator@D@2@@std@@QBEIXZ ; std::basic_string<char,std::char_traits<char>,std::allocator<char> >::max_size
  0003f	39 45 08	 cmp	 DWORD PTR __New_size$[ebp], eax
  00042	76 05		 jbe	 SHORT $LN2@Reallocate

; 4086 :             _Xlen(); // result too long

  00044	e8 00 00 00 00	 call	 ?_Xlen@?$basic_string@DU?$char_traits@D@std@@V?$allocator@D@2@@std@@CAXXZ ; std::basic_string<char,std::char_traits<char>,std::allocator<char> >::_Xlen
$LN2@Reallocate:

; 4087 :         }
; 4088 : 
; 4089 :         const size_type _Old_capacity = _Mypair._Myval2._Myres;

  00049	8b 45 f4	 mov	 eax, DWORD PTR _this$[ebp]
  0004c	8b 48 18	 mov	 ecx, DWORD PTR [eax+24]
  0004f	89 4d e8	 mov	 DWORD PTR __Old_capacity$[ebp], ecx

; 4090 :         const size_type _New_capacity = _Calculate_growth(_New_size);

  00052	8b 45 08	 mov	 eax, DWORD PTR __New_size$[ebp]
  00055	50		 push	 eax
  00056	8b 4d f4	 mov	 ecx, DWORD PTR _this$[ebp]
  00059	e8 00 00 00 00	 call	 ?_Calculate_growth@?$basic_string@DU?$char_traits@D@std@@V?$allocator@D@2@@std@@ABEII@Z ; std::basic_string<char,std::char_traits<char>,std::allocator<char> >::_Calculate_growth
  0005e	89 45 dc	 mov	 DWORD PTR __New_capacity$[ebp], eax

; 4091 :         auto& _Al                     = _Getal();

  00061	8b 4d f4	 mov	 ecx, DWORD PTR _this$[ebp]
  00064	e8 00 00 00 00	 call	 ?_Getal@?$basic_string@DU?$char_traits@D@std@@V?$allocator@D@2@@std@@AAEAAV?$allocator@D@2@XZ ; std::basic_string<char,std::char_traits<char>,std::allocator<char> >::_Getal
  00069	89 45 d0	 mov	 DWORD PTR __Al$[ebp], eax

; 4092 :         const pointer _New_ptr        = _Al.allocate(_New_capacity + 1); // throws

  0006c	33 c0		 xor	 eax, eax
  0006e	8b 4d dc	 mov	 ecx, DWORD PTR __New_capacity$[ebp]
  00071	83 c1 01	 add	 ecx, 1
  00074	0f 92 c0	 setb	 al
  00077	f7 d8		 neg	 eax
  00079	0b c1		 or	 eax, ecx
  0007b	50		 push	 eax
  0007c	8b 4d d0	 mov	 ecx, DWORD PTR __Al$[ebp]
  0007f	e8 00 00 00 00	 call	 ?allocate@?$allocator@D@std@@QAEPADI@Z ; std::allocator<char>::allocate
  00084	89 45 c4	 mov	 DWORD PTR __New_ptr$[ebp], eax

; 4093 :         _Mypair._Myval2._Orphan_all();

  00087	8b 4d f4	 mov	 ecx, DWORD PTR _this$[ebp]
  0008a	e8 00 00 00 00	 call	 ?_Orphan_all@_Container_base12@std@@QAEXXZ ; std::_Container_base12::_Orphan_all

; 4094 :         _Mypair._Myval2._Mysize = _New_size;

  0008f	8b 45 f4	 mov	 eax, DWORD PTR _this$[ebp]
  00092	8b 4d 08	 mov	 ecx, DWORD PTR __New_size$[ebp]
  00095	89 48 14	 mov	 DWORD PTR [eax+20], ecx

; 4095 :         _Mypair._Myval2._Myres  = _New_capacity;

  00098	8b 45 f4	 mov	 eax, DWORD PTR _this$[ebp]
  0009b	8b 4d dc	 mov	 ecx, DWORD PTR __New_capacity$[ebp]
  0009e	89 48 18	 mov	 DWORD PTR [eax+24], ecx

; 4096 :         _Fn(_Unfancy(_New_ptr), _New_size, _Args...);

  000a1	8b 45 10	 mov	 eax, DWORD PTR _<_Args_0>$[ebp]
  000a4	50		 push	 eax
  000a5	8b 4d 08	 mov	 ecx, DWORD PTR __New_size$[ebp]
  000a8	51		 push	 ecx
  000a9	8b 55 c4	 mov	 edx, DWORD PTR __New_ptr$[ebp]
  000ac	52		 push	 edx
  000ad	e8 00 00 00 00	 call	 ??$_Unfancy@D@std@@YAPADPAD@Z ; std::_Unfancy<char>
  000b2	83 c4 04	 add	 esp, 4
  000b5	50		 push	 eax
  000b6	8d 4d 0c	 lea	 ecx, DWORD PTR __Fn$[ebp]
  000b9	e8 00 00 00 00	 call	 ??R<lambda_9366063389c5f42a00a5088cf24e69de>@@QBEXQADIQBD@Z ; <lambda_9366063389c5f42a00a5088cf24e69de>::operator()

; 4097 :         if (_BUF_SIZE <= _Old_capacity) {

  000be	83 7d e8 10	 cmp	 DWORD PTR __Old_capacity$[ebp], 16 ; 00000010H
  000c2	72 21		 jb	 SHORT $LN3@Reallocate

; 4098 :             _Al.deallocate(_Mypair._Myval2._Bx._Ptr, _Old_capacity + 1);

  000c4	8b 45 e8	 mov	 eax, DWORD PTR __Old_capacity$[ebp]
  000c7	83 c0 01	 add	 eax, 1
  000ca	50		 push	 eax
  000cb	8b 4d f4	 mov	 ecx, DWORD PTR _this$[ebp]
  000ce	8b 51 04	 mov	 edx, DWORD PTR [ecx+4]
  000d1	52		 push	 edx
  000d2	8b 4d d0	 mov	 ecx, DWORD PTR __Al$[ebp]
  000d5	e8 00 00 00 00	 call	 ?deallocate@?$allocator@D@std@@QAEXQADI@Z ; std::allocator<char>::deallocate

; 4099 :             _Mypair._Myval2._Bx._Ptr = _New_ptr;

  000da	8b 45 f4	 mov	 eax, DWORD PTR _this$[ebp]
  000dd	8b 4d c4	 mov	 ecx, DWORD PTR __New_ptr$[ebp]
  000e0	89 48 04	 mov	 DWORD PTR [eax+4], ecx

; 4100 :         } else {

  000e3	eb 13		 jmp	 SHORT $LN4@Reallocate
$LN3@Reallocate:

; 4101 :             _Construct_in_place(_Mypair._Myval2._Bx._Ptr, _New_ptr);

  000e5	8d 45 c4	 lea	 eax, DWORD PTR __New_ptr$[ebp]
  000e8	50		 push	 eax
  000e9	8b 4d f4	 mov	 ecx, DWORD PTR _this$[ebp]
  000ec	83 c1 04	 add	 ecx, 4
  000ef	51		 push	 ecx
  000f0	e8 00 00 00 00	 call	 ??$_Construct_in_place@PADABQAD@std@@YAXAAPADABQAD@Z ; std::_Construct_in_place<char *,char * const &>
  000f5	83 c4 08	 add	 esp, 8
$LN4@Reallocate:

; 4102 :         }
; 4103 : 
; 4104 :         return *this;

  000f8	8b 45 f4	 mov	 eax, DWORD PTR _this$[ebp]
$LN5@Reallocate:

; 4105 :     }

  000fb	52		 push	 edx
  000fc	8b cd		 mov	 ecx, ebp
  000fe	50		 push	 eax
  000ff	8d 15 00 00 00
	00		 lea	 edx, DWORD PTR $LN8@Reallocate
  00105	e8 00 00 00 00	 call	 @_RTC_CheckStackVars@8
  0010a	58		 pop	 eax
  0010b	5a		 pop	 edx
  0010c	5f		 pop	 edi
  0010d	5e		 pop	 esi
  0010e	5b		 pop	 ebx
  0010f	8b 4d fc	 mov	 ecx, DWORD PTR __$ArrayPad$[ebp]
  00112	33 cd		 xor	 ecx, ebp
  00114	e8 00 00 00 00	 call	 @__security_check_cookie@4
  00119	81 c4 00 01 00
	00		 add	 esp, 256		; 00000100H
  0011f	3b ec		 cmp	 ebp, esp
  00121	e8 00 00 00 00	 call	 __RTC_CheckEsp
  00126	8b e5		 mov	 esp, ebp
  00128	5d		 pop	 ebp
  00129	c2 0c 00	 ret	 12			; 0000000cH
$LN8@Reallocate:
  0012c	01 00 00 00	 DD	 1
  00130	00 00 00 00	 DD	 $LN7@Reallocate
$LN7@Reallocate:
  00134	c4 ff ff ff	 DD	 -60			; ffffffc4H
  00138	04 00 00 00	 DD	 4
  0013c	00 00 00 00	 DD	 $LN6@Reallocate
$LN6@Reallocate:
  00140	5f		 DB	 95			; 0000005fH
  00141	4e		 DB	 78			; 0000004eH
  00142	65		 DB	 101			; 00000065H
  00143	77		 DB	 119			; 00000077H
  00144	5f		 DB	 95			; 0000005fH
  00145	70		 DB	 112			; 00000070H
  00146	74		 DB	 116			; 00000074H
  00147	72		 DB	 114			; 00000072H
  00148	00		 DB	 0
??$_Reallocate_for@V<lambda_9366063389c5f42a00a5088cf24e69de>@@PBD@?$basic_string@DU?$char_traits@D@std@@V?$allocator@D@2@@std@@AAEAAV01@IV<lambda_9366063389c5f42a00a5088cf24e69de>@@PBD@Z ENDP ; std::basic_string<char,std::char_traits<char>,std::allocator<char> >::_Reallocate_for<<lambda_9366063389c5f42a00a5088cf24e69de>,char const *>
_TEXT	ENDS
; Function compile flags: /Odtp /RTCsu /ZI
; File C:\Program Files (x86)\Microsoft Visual Studio\2019\Community\VC\Tools\MSVC\14.23.28105\include\xstring
;	COMDAT ??R<lambda_9366063389c5f42a00a5088cf24e69de>@@QBEXQADIQBD@Z
_TEXT	SEGMENT
$T1 = -209						; size = 1
_this$ = -8						; size = 4
__New_ptr$ = 8						; size = 4
__Count$ = 12						; size = 4
__Ptr$ = 16						; size = 4
??R<lambda_9366063389c5f42a00a5088cf24e69de>@@QBEXQADIQBD@Z PROC ; <lambda_9366063389c5f42a00a5088cf24e69de>::operator(), COMDAT
; _this$ = ecx

; 2853 :             [](_Elem* const _New_ptr, const size_type _Count, const _Elem* const _Ptr) {

  00000	55		 push	 ebp
  00001	8b ec		 mov	 ebp, esp
  00003	81 ec d8 00 00
	00		 sub	 esp, 216		; 000000d8H
  00009	53		 push	 ebx
  0000a	56		 push	 esi
  0000b	57		 push	 edi
  0000c	51		 push	 ecx
  0000d	8d bd 28 ff ff
	ff		 lea	 edi, DWORD PTR [ebp-216]
  00013	b9 36 00 00 00	 mov	 ecx, 54			; 00000036H
  00018	b8 cc cc cc cc	 mov	 eax, -858993460		; ccccccccH
  0001d	f3 ab		 rep stosd
  0001f	59		 pop	 ecx
  00020	89 4d f8	 mov	 DWORD PTR _this$[ebp], ecx
  00023	b9 00 00 00 00	 mov	 ecx, OFFSET __AF9D3FD8_xstring
  00028	e8 00 00 00 00	 call	 @__CheckForDebuggerJustMyCode@4

; 2854 :                 _Traits::copy(_New_ptr, _Ptr, _Count);

  0002d	8b 45 0c	 mov	 eax, DWORD PTR __Count$[ebp]
  00030	50		 push	 eax
  00031	8b 4d 10	 mov	 ecx, DWORD PTR __Ptr$[ebp]
  00034	51		 push	 ecx
  00035	8b 55 08	 mov	 edx, DWORD PTR __New_ptr$[ebp]
  00038	52		 push	 edx
  00039	e8 00 00 00 00	 call	 ?copy@?$_Narrow_char_traits@DH@std@@SAPADQADQBDI@Z ; std::_Narrow_char_traits<char,int>::copy
  0003e	83 c4 0c	 add	 esp, 12			; 0000000cH

; 2855 :                 _Traits::assign(_New_ptr[_Count], _Elem());

  00041	c6 85 2f ff ff
	ff 00		 mov	 BYTE PTR $T1[ebp], 0
  00048	8d 85 2f ff ff
	ff		 lea	 eax, DWORD PTR $T1[ebp]
  0004e	50		 push	 eax
  0004f	8b 4d 08	 mov	 ecx, DWORD PTR __New_ptr$[ebp]
  00052	03 4d 0c	 add	 ecx, DWORD PTR __Count$[ebp]
  00055	51		 push	 ecx
  00056	e8 00 00 00 00	 call	 ?assign@?$_Narrow_char_traits@DH@std@@SAXAADABD@Z ; std::_Narrow_char_traits<char,int>::assign
  0005b	83 c4 08	 add	 esp, 8

; 2856 :             },

  0005e	5f		 pop	 edi
  0005f	5e		 pop	 esi
  00060	5b		 pop	 ebx
  00061	81 c4 d8 00 00
	00		 add	 esp, 216		; 000000d8H
  00067	3b ec		 cmp	 ebp, esp
  00069	e8 00 00 00 00	 call	 __RTC_CheckEsp
  0006e	8b e5		 mov	 esp, ebp
  00070	5d		 pop	 ebp
  00071	c2 0c 00	 ret	 12			; 0000000cH
??R<lambda_9366063389c5f42a00a5088cf24e69de>@@QBEXQADIQBD@Z ENDP ; <lambda_9366063389c5f42a00a5088cf24e69de>::operator()
_TEXT	ENDS
; Function compile flags: /Odtp /RTCsu /ZI
; File C:\Program Files (x86)\Microsoft Visual Studio\2019\Community\VC\Tools\MSVC\14.23.28105\include\utility
;	COMDAT ??$_Max_value@I@std@@YAABIABI0@Z
_TEXT	SEGMENT
tv65 = -220						; size = 4
$T2 = -212						; size = 4
__$EHRec$ = -12						; size = 12
__Left$ = 8						; size = 4
__Right$ = 12						; size = 4
??$_Max_value@I@std@@YAABIABI0@Z PROC			; std::_Max_value<unsigned int>, COMDAT

; 32   :     _NOEXCEPT_COND(noexcept(_Left < _Right)) { // return larger of _Left and _Right

  00000	55		 push	 ebp
  00001	8b ec		 mov	 ebp, esp
  00003	6a ff		 push	 -1
  00005	68 00 00 00 00	 push	 __ehhandler$??$_Max_value@I@std@@YAABIABI0@Z
  0000a	64 a1 00 00 00
	00		 mov	 eax, DWORD PTR fs:0
  00010	50		 push	 eax
  00011	81 ec d0 00 00
	00		 sub	 esp, 208		; 000000d0H
  00017	53		 push	 ebx
  00018	56		 push	 esi
  00019	57		 push	 edi
  0001a	8d bd 24 ff ff
	ff		 lea	 edi, DWORD PTR [ebp-220]
  00020	b9 34 00 00 00	 mov	 ecx, 52			; 00000034H
  00025	b8 cc cc cc cc	 mov	 eax, -858993460		; ccccccccH
  0002a	f3 ab		 rep stosd
  0002c	a1 00 00 00 00	 mov	 eax, DWORD PTR ___security_cookie
  00031	33 c5		 xor	 eax, ebp
  00033	50		 push	 eax
  00034	8d 45 f4	 lea	 eax, DWORD PTR __$EHRec$[ebp]
  00037	64 a3 00 00 00
	00		 mov	 DWORD PTR fs:0, eax
  0003d	b9 00 00 00 00	 mov	 ecx, OFFSET __B1DBDA87_utility
  00042	e8 00 00 00 00	 call	 @__CheckForDebuggerJustMyCode@4

; 33   :     return _Left < _Right ? _Right : _Left;

  00047	8b 45 08	 mov	 eax, DWORD PTR __Left$[ebp]
  0004a	8b 4d 0c	 mov	 ecx, DWORD PTR __Right$[ebp]
  0004d	8b 10		 mov	 edx, DWORD PTR [eax]
  0004f	3b 11		 cmp	 edx, DWORD PTR [ecx]
  00051	73 0b		 jae	 SHORT $LN3@Max_value
  00053	8b 45 0c	 mov	 eax, DWORD PTR __Right$[ebp]
  00056	89 85 24 ff ff
	ff		 mov	 DWORD PTR tv65[ebp], eax
  0005c	eb 09		 jmp	 SHORT $LN4@Max_value
$LN3@Max_value:
  0005e	8b 4d 08	 mov	 ecx, DWORD PTR __Left$[ebp]
  00061	89 8d 24 ff ff
	ff		 mov	 DWORD PTR tv65[ebp], ecx
$LN4@Max_value:
  00067	8b 95 24 ff ff
	ff		 mov	 edx, DWORD PTR tv65[ebp]
  0006d	89 95 2c ff ff
	ff		 mov	 DWORD PTR $T2[ebp], edx
  00073	8b 85 2c ff ff
	ff		 mov	 eax, DWORD PTR $T2[ebp]

; 34   : }

  00079	8b 4d f4	 mov	 ecx, DWORD PTR __$EHRec$[ebp]
  0007c	64 89 0d 00 00
	00 00		 mov	 DWORD PTR fs:0, ecx
  00083	59		 pop	 ecx
  00084	5f		 pop	 edi
  00085	5e		 pop	 esi
  00086	5b		 pop	 ebx
  00087	81 c4 dc 00 00
	00		 add	 esp, 220		; 000000dcH
  0008d	3b ec		 cmp	 ebp, esp
  0008f	e8 00 00 00 00	 call	 __RTC_CheckEsp
  00094	8b e5		 mov	 esp, ebp
  00096	5d		 pop	 ebp
  00097	c3		 ret	 0
_TEXT	ENDS
;	COMDAT text$x
text$x	SEGMENT
__ehhandler$??$_Max_value@I@std@@YAABIABI0@Z:
  00000	8b 54 24 08	 mov	 edx, DWORD PTR [esp+8]
  00004	8d 42 0c	 lea	 eax, DWORD PTR [edx+12]
  00007	8b 8a 20 ff ff
	ff		 mov	 ecx, DWORD PTR [edx-224]
  0000d	33 c8		 xor	 ecx, eax
  0000f	e8 00 00 00 00	 call	 @__security_check_cookie@4
  00014	b8 00 00 00 00	 mov	 eax, OFFSET __ehfuncinfo$??$_Max_value@I@std@@YAABIABI0@Z
  00019	e9 00 00 00 00	 jmp	 ___CxxFrameHandler3
text$x	ENDS
??$_Max_value@I@std@@YAABIABI0@Z ENDP			; std::_Max_value<unsigned int>
; Function compile flags: /Odtp /RTCsu /ZI
; File C:\Program Files (x86)\Microsoft Visual Studio\2019\Community\VC\Tools\MSVC\14.23.28105\include\xmemory
;	COMDAT ??$_Destroy_in_place@PAD@std@@YAXAAPAD@Z
_TEXT	SEGMENT
__$EHRec$ = -12						; size = 12
__Obj$ = 8						; size = 4
??$_Destroy_in_place@PAD@std@@YAXAAPAD@Z PROC		; std::_Destroy_in_place<char *>, COMDAT

; 321  : void _Destroy_in_place(_Ty& _Obj) noexcept {

  00000	55		 push	 ebp
  00001	8b ec		 mov	 ebp, esp
  00003	6a ff		 push	 -1
  00005	68 00 00 00 00	 push	 __ehhandler$??$_Destroy_in_place@PAD@std@@YAXAAPAD@Z
  0000a	64 a1 00 00 00
	00		 mov	 eax, DWORD PTR fs:0
  00010	50		 push	 eax
  00011	81 ec c0 00 00
	00		 sub	 esp, 192		; 000000c0H
  00017	53		 push	 ebx
  00018	56		 push	 esi
  00019	57		 push	 edi
  0001a	8d bd 34 ff ff
	ff		 lea	 edi, DWORD PTR [ebp-204]
  00020	b9 30 00 00 00	 mov	 ecx, 48			; 00000030H
  00025	b8 cc cc cc cc	 mov	 eax, -858993460		; ccccccccH
  0002a	f3 ab		 rep stosd
  0002c	a1 00 00 00 00	 mov	 eax, DWORD PTR ___security_cookie
  00031	33 c5		 xor	 eax, ebp
  00033	50		 push	 eax
  00034	8d 45 f4	 lea	 eax, DWORD PTR __$EHRec$[ebp]
  00037	64 a3 00 00 00
	00		 mov	 DWORD PTR fs:0, eax
  0003d	b9 00 00 00 00	 mov	 ecx, OFFSET __DB4EB944_xmemory
  00042	e8 00 00 00 00	 call	 @__CheckForDebuggerJustMyCode@4

; 322  :     _Obj.~_Ty();
; 323  : }

  00047	8b 4d f4	 mov	 ecx, DWORD PTR __$EHRec$[ebp]
  0004a	64 89 0d 00 00
	00 00		 mov	 DWORD PTR fs:0, ecx
  00051	59		 pop	 ecx
  00052	5f		 pop	 edi
  00053	5e		 pop	 esi
  00054	5b		 pop	 ebx
  00055	81 c4 cc 00 00
	00		 add	 esp, 204		; 000000ccH
  0005b	3b ec		 cmp	 ebp, esp
  0005d	e8 00 00 00 00	 call	 __RTC_CheckEsp
  00062	8b e5		 mov	 esp, ebp
  00064	5d		 pop	 ebp
  00065	c3		 ret	 0
_TEXT	ENDS
;	COMDAT text$x
text$x	SEGMENT
__ehhandler$??$_Destroy_in_place@PAD@std@@YAXAAPAD@Z:
  00000	8b 54 24 08	 mov	 edx, DWORD PTR [esp+8]
  00004	8d 42 0c	 lea	 eax, DWORD PTR [edx+12]
  00007	8b 8a 30 ff ff
	ff		 mov	 ecx, DWORD PTR [edx-208]
  0000d	33 c8		 xor	 ecx, eax
  0000f	e8 00 00 00 00	 call	 @__security_check_cookie@4
  00014	b8 00 00 00 00	 mov	 eax, OFFSET __ehfuncinfo$??$_Destroy_in_place@PAD@std@@YAXAAPAD@Z
  00019	e9 00 00 00 00	 jmp	 ___CxxFrameHandler3
text$x	ENDS
??$_Destroy_in_place@PAD@std@@YAXAAPAD@Z ENDP		; std::_Destroy_in_place<char *>
; Function compile flags: /Odtp /RTCsu /ZI
; File C:\Program Files (x86)\Microsoft Visual Studio\2019\Community\VC\Tools\MSVC\14.23.28105\include\xstddef
;	COMDAT ??$_Unfancy@U_Container_proxy@std@@@std@@YAPAU_Container_proxy@0@PAU10@@Z
_TEXT	SEGMENT
__Ptr$ = 8						; size = 4
??$_Unfancy@U_Container_proxy@std@@@std@@YAPAU_Container_proxy@0@PAU10@@Z PROC ; std::_Unfancy<std::_Container_proxy>, COMDAT

; 293  : _Ty* _Unfancy(_Ty* _Ptr) { // do nothing for plain pointers

  00000	55		 push	 ebp
  00001	8b ec		 mov	 ebp, esp
  00003	81 ec c0 00 00
	00		 sub	 esp, 192		; 000000c0H
  00009	53		 push	 ebx
  0000a	56		 push	 esi
  0000b	57		 push	 edi
  0000c	8d bd 40 ff ff
	ff		 lea	 edi, DWORD PTR [ebp-192]
  00012	b9 30 00 00 00	 mov	 ecx, 48			; 00000030H
  00017	b8 cc cc cc cc	 mov	 eax, -858993460		; ccccccccH
  0001c	f3 ab		 rep stosd
  0001e	b9 00 00 00 00	 mov	 ecx, OFFSET __46C44D95_xstddef
  00023	e8 00 00 00 00	 call	 @__CheckForDebuggerJustMyCode@4

; 294  :     return _Ptr;

  00028	8b 45 08	 mov	 eax, DWORD PTR __Ptr$[ebp]

; 295  : }

  0002b	5f		 pop	 edi
  0002c	5e		 pop	 esi
  0002d	5b		 pop	 ebx
  0002e	81 c4 c0 00 00
	00		 add	 esp, 192		; 000000c0H
  00034	3b ec		 cmp	 ebp, esp
  00036	e8 00 00 00 00	 call	 __RTC_CheckEsp
  0003b	8b e5		 mov	 esp, ebp
  0003d	5d		 pop	 ebp
  0003e	c3		 ret	 0
??$_Unfancy@U_Container_proxy@std@@@std@@YAPAU_Container_proxy@0@PAU10@@Z ENDP ; std::_Unfancy<std::_Container_proxy>
_TEXT	ENDS
; Function compile flags: /Odtp /RTCsu /ZI
; File C:\Program Files (x86)\Microsoft Visual Studio\2019\Community\VC\Tools\MSVC\14.23.28105\include\xmemory
;	COMDAT ??$?0$$V@?$_Compressed_pair@V?$allocator@D@std@@V?$_String_val@U?$_Simple_types@D@std@@@2@$00@std@@QAE@U_Zero_then_variadic_args_t@1@@Z
_TEXT	SEGMENT
_this$ = -8						; size = 4
___formal$ = 8						; size = 1
??$?0$$V@?$_Compressed_pair@V?$allocator@D@std@@V?$_String_val@U?$_Simple_types@D@std@@@2@$00@std@@QAE@U_Zero_then_variadic_args_t@1@@Z PROC ; std::_Compressed_pair<std::allocator<char>,std::_String_val<std::_Simple_types<char> >,1>::_Compressed_pair<std::allocator<char>,std::_String_val<std::_Simple_types<char> >,1><>, COMDAT
; _this$ = ecx

; 1414 :         : _Ty1(), _Myval2(_STD forward<_Other2>(_Val2)...) {}

  00000	55		 push	 ebp
  00001	8b ec		 mov	 ebp, esp
  00003	81 ec cc 00 00
	00		 sub	 esp, 204		; 000000ccH
  00009	53		 push	 ebx
  0000a	56		 push	 esi
  0000b	57		 push	 edi
  0000c	51		 push	 ecx
  0000d	8d bd 34 ff ff
	ff		 lea	 edi, DWORD PTR [ebp-204]
  00013	b9 33 00 00 00	 mov	 ecx, 51			; 00000033H
  00018	b8 cc cc cc cc	 mov	 eax, -858993460		; ccccccccH
  0001d	f3 ab		 rep stosd
  0001f	59		 pop	 ecx
  00020	89 4d f8	 mov	 DWORD PTR _this$[ebp], ecx
  00023	b9 00 00 00 00	 mov	 ecx, OFFSET __DB4EB944_xmemory
  00028	e8 00 00 00 00	 call	 @__CheckForDebuggerJustMyCode@4
  0002d	8b 4d f8	 mov	 ecx, DWORD PTR _this$[ebp]
  00030	e8 00 00 00 00	 call	 ??0?$allocator@D@std@@QAE@XZ ; std::allocator<char>::allocator<char>
  00035	8b 4d f8	 mov	 ecx, DWORD PTR _this$[ebp]
  00038	e8 00 00 00 00	 call	 ??0?$_String_val@U?$_Simple_types@D@std@@@std@@QAE@XZ ; std::_String_val<std::_Simple_types<char> >::_String_val<std::_Simple_types<char> >
  0003d	8b 45 f8	 mov	 eax, DWORD PTR _this$[ebp]
  00040	5f		 pop	 edi
  00041	5e		 pop	 esi
  00042	5b		 pop	 ebx
  00043	81 c4 cc 00 00
	00		 add	 esp, 204		; 000000ccH
  00049	3b ec		 cmp	 ebp, esp
  0004b	e8 00 00 00 00	 call	 __RTC_CheckEsp
  00050	8b e5		 mov	 esp, ebp
  00052	5d		 pop	 ebp
  00053	c2 04 00	 ret	 4
??$?0$$V@?$_Compressed_pair@V?$allocator@D@std@@V?$_String_val@U?$_Simple_types@D@std@@@2@$00@std@@QAE@U_Zero_then_variadic_args_t@1@@Z ENDP ; std::_Compressed_pair<std::allocator<char>,std::_String_val<std::_Simple_types<char> >,1>::_Compressed_pair<std::allocator<char>,std::_String_val<std::_Simple_types<char> >,1><>
_TEXT	ENDS
; Function compile flags: /Odtp /RTCsu /ZI
; File C:\Program Files (x86)\Microsoft Visual Studio\2019\Community\VC\Tools\MSVC\14.23.28105\include\xmemory
;	COMDAT ??$_Alloc_proxy@V?$allocator@U_Container_proxy@std@@@std@@@_Container_base12@std@@QAEX$$QAV?$allocator@U_Container_proxy@std@@@1@@Z
_TEXT	SEGMENT
$T1 = -224						; size = 4
__New_proxy$ = -20					; size = 4
_this$ = -8						; size = 4
__Al$ = 8						; size = 4
??$_Alloc_proxy@V?$allocator@U_Container_proxy@std@@@std@@@_Container_base12@std@@QAEX$$QAV?$allocator@U_Container_proxy@std@@@1@@Z PROC ; std::_Container_base12::_Alloc_proxy<std::allocator<std::_Container_proxy> >, COMDAT
; _this$ = ecx

; 1184 :     void _Alloc_proxy(_Alloc&& _Al) {

  00000	55		 push	 ebp
  00001	8b ec		 mov	 ebp, esp
  00003	81 ec e4 00 00
	00		 sub	 esp, 228		; 000000e4H
  00009	53		 push	 ebx
  0000a	56		 push	 esi
  0000b	57		 push	 edi
  0000c	51		 push	 ecx
  0000d	8d bd 1c ff ff
	ff		 lea	 edi, DWORD PTR [ebp-228]
  00013	b9 39 00 00 00	 mov	 ecx, 57			; 00000039H
  00018	b8 cc cc cc cc	 mov	 eax, -858993460		; ccccccccH
  0001d	f3 ab		 rep stosd
  0001f	59		 pop	 ecx
  00020	89 4d f8	 mov	 DWORD PTR _this$[ebp], ecx
  00023	b9 00 00 00 00	 mov	 ecx, OFFSET __DB4EB944_xmemory
  00028	e8 00 00 00 00	 call	 @__CheckForDebuggerJustMyCode@4

; 1185 :         _Container_proxy* const _New_proxy = _Unfancy(_Al.allocate(1));

  0002d	6a 01		 push	 1
  0002f	8b 4d 08	 mov	 ecx, DWORD PTR __Al$[ebp]
  00032	e8 00 00 00 00	 call	 ?allocate@?$allocator@U_Container_proxy@std@@@std@@QAEPAU_Container_proxy@2@I@Z ; std::allocator<std::_Container_proxy>::allocate
  00037	50		 push	 eax
  00038	e8 00 00 00 00	 call	 ??$_Unfancy@U_Container_proxy@std@@@std@@YAPAU_Container_proxy@0@PAU10@@Z ; std::_Unfancy<std::_Container_proxy>
  0003d	83 c4 04	 add	 esp, 4
  00040	89 45 ec	 mov	 DWORD PTR __New_proxy$[ebp], eax

; 1186 :         _Construct_in_place(*_New_proxy, this);

  00043	8b 45 f8	 mov	 eax, DWORD PTR _this$[ebp]
  00046	89 85 20 ff ff
	ff		 mov	 DWORD PTR $T1[ebp], eax
  0004c	8d 8d 20 ff ff
	ff		 lea	 ecx, DWORD PTR $T1[ebp]
  00052	51		 push	 ecx
  00053	8b 55 ec	 mov	 edx, DWORD PTR __New_proxy$[ebp]
  00056	52		 push	 edx
  00057	e8 00 00 00 00	 call	 ??$_Construct_in_place@U_Container_proxy@std@@PAU_Container_base12@2@@std@@YAXAAU_Container_proxy@0@$$QAPAU_Container_base12@0@@Z ; std::_Construct_in_place<std::_Container_proxy,std::_Container_base12 *>
  0005c	83 c4 08	 add	 esp, 8

; 1187 :         _Myproxy            = _New_proxy;

  0005f	8b 45 f8	 mov	 eax, DWORD PTR _this$[ebp]
  00062	8b 4d ec	 mov	 ecx, DWORD PTR __New_proxy$[ebp]
  00065	89 08		 mov	 DWORD PTR [eax], ecx

; 1188 :         _New_proxy->_Mycont = this;

  00067	8b 45 ec	 mov	 eax, DWORD PTR __New_proxy$[ebp]
  0006a	8b 4d f8	 mov	 ecx, DWORD PTR _this$[ebp]
  0006d	89 08		 mov	 DWORD PTR [eax], ecx

; 1189 :     }

  0006f	5f		 pop	 edi
  00070	5e		 pop	 esi
  00071	5b		 pop	 ebx
  00072	81 c4 e4 00 00
	00		 add	 esp, 228		; 000000e4H
  00078	3b ec		 cmp	 ebp, esp
  0007a	e8 00 00 00 00	 call	 __RTC_CheckEsp
  0007f	8b e5		 mov	 esp, ebp
  00081	5d		 pop	 ebp
  00082	c2 04 00	 ret	 4
??$_Alloc_proxy@V?$allocator@U_Container_proxy@std@@@std@@@_Container_base12@std@@QAEX$$QAV?$allocator@U_Container_proxy@std@@@1@@Z ENDP ; std::_Container_base12::_Alloc_proxy<std::allocator<std::_Container_proxy> >
_TEXT	ENDS
; Function compile flags: /Odtp /RTCsu /ZI
; File C:\Program Files (x86)\Microsoft Visual Studio\2019\Community\VC\Tools\MSVC\14.23.28105\include\xmemory
;	COMDAT ??$?0V?$allocator@D@std@@$$V@?$_Compressed_pair@V?$allocator@D@std@@V?$_String_val@U?$_Simple_types@D@std@@@2@$00@std@@QAE@U_One_then_variadic_args_t@1@$$QAV?$allocator@D@1@@Z
_TEXT	SEGMENT
_this$ = -8						; size = 4
___formal$ = 8						; size = 1
__Val1$ = 12						; size = 4
??$?0V?$allocator@D@std@@$$V@?$_Compressed_pair@V?$allocator@D@std@@V?$_String_val@U?$_Simple_types@D@std@@@2@$00@std@@QAE@U_One_then_variadic_args_t@1@$$QAV?$allocator@D@1@@Z PROC ; std::_Compressed_pair<std::allocator<char>,std::_String_val<std::_Simple_types<char> >,1>::_Compressed_pair<std::allocator<char>,std::_String_val<std::_Simple_types<char> >,1><std::allocator<char> >, COMDAT
; _this$ = ecx

; 1418 :         : _Ty1(_STD forward<_Other1>(_Val1)), _Myval2(_STD forward<_Other2>(_Val2)...) {}

  00000	55		 push	 ebp
  00001	8b ec		 mov	 ebp, esp
  00003	81 ec cc 00 00
	00		 sub	 esp, 204		; 000000ccH
  00009	53		 push	 ebx
  0000a	56		 push	 esi
  0000b	57		 push	 edi
  0000c	51		 push	 ecx
  0000d	8d bd 34 ff ff
	ff		 lea	 edi, DWORD PTR [ebp-204]
  00013	b9 33 00 00 00	 mov	 ecx, 51			; 00000033H
  00018	b8 cc cc cc cc	 mov	 eax, -858993460		; ccccccccH
  0001d	f3 ab		 rep stosd
  0001f	59		 pop	 ecx
  00020	89 4d f8	 mov	 DWORD PTR _this$[ebp], ecx
  00023	b9 00 00 00 00	 mov	 ecx, OFFSET __DB4EB944_xmemory
  00028	e8 00 00 00 00	 call	 @__CheckForDebuggerJustMyCode@4
  0002d	8b 45 0c	 mov	 eax, DWORD PTR __Val1$[ebp]
  00030	50		 push	 eax
  00031	e8 00 00 00 00	 call	 ??$forward@V?$allocator@D@std@@@std@@YA$$QAV?$allocator@D@0@AAV10@@Z ; std::forward<std::allocator<char> >
  00036	83 c4 04	 add	 esp, 4
  00039	8b 4d f8	 mov	 ecx, DWORD PTR _this$[ebp]
  0003c	e8 00 00 00 00	 call	 ??0?$_String_val@U?$_Simple_types@D@std@@@std@@QAE@XZ ; std::_String_val<std::_Simple_types<char> >::_String_val<std::_Simple_types<char> >
  00041	8b 45 f8	 mov	 eax, DWORD PTR _this$[ebp]
  00044	5f		 pop	 edi
  00045	5e		 pop	 esi
  00046	5b		 pop	 ebx
  00047	81 c4 cc 00 00
	00		 add	 esp, 204		; 000000ccH
  0004d	3b ec		 cmp	 ebp, esp
  0004f	e8 00 00 00 00	 call	 __RTC_CheckEsp
  00054	8b e5		 mov	 esp, ebp
  00056	5d		 pop	 ebp
  00057	c2 08 00	 ret	 8
??$?0V?$allocator@D@std@@$$V@?$_Compressed_pair@V?$allocator@D@std@@V?$_String_val@U?$_Simple_types@D@std@@@2@$00@std@@QAE@U_One_then_variadic_args_t@1@$$QAV?$allocator@D@1@@Z ENDP ; std::_Compressed_pair<std::allocator<char>,std::_String_val<std::_Simple_types<char> >,1>::_Compressed_pair<std::allocator<char>,std::_String_val<std::_Simple_types<char> >,1><std::allocator<char> >
_TEXT	ENDS
; Function compile flags: /Odtp /RTCsu /ZI
; File C:\Program Files (x86)\Microsoft Visual Studio\2019\Community\VC\Tools\MSVC\14.23.28105\include\type_traits
;	COMDAT ??$move@AAV?$allocator@D@std@@@std@@YA$$QAV?$allocator@D@0@AAV10@@Z
_TEXT	SEGMENT
__$EHRec$ = -12						; size = 12
__Arg$ = 8						; size = 4
??$move@AAV?$allocator@D@std@@@std@@YA$$QAV?$allocator@D@0@AAV10@@Z PROC ; std::move<std::allocator<char> &>, COMDAT

; 1432 : _NODISCARD constexpr remove_reference_t<_Ty>&& move(_Ty&& _Arg) noexcept { // forward _Arg as movable

  00000	55		 push	 ebp
  00001	8b ec		 mov	 ebp, esp
  00003	6a ff		 push	 -1
  00005	68 00 00 00 00	 push	 __ehhandler$??$move@AAV?$allocator@D@std@@@std@@YA$$QAV?$allocator@D@0@AAV10@@Z
  0000a	64 a1 00 00 00
	00		 mov	 eax, DWORD PTR fs:0
  00010	50		 push	 eax
  00011	81 ec c0 00 00
	00		 sub	 esp, 192		; 000000c0H
  00017	53		 push	 ebx
  00018	56		 push	 esi
  00019	57		 push	 edi
  0001a	8d bd 34 ff ff
	ff		 lea	 edi, DWORD PTR [ebp-204]
  00020	b9 30 00 00 00	 mov	 ecx, 48			; 00000030H
  00025	b8 cc cc cc cc	 mov	 eax, -858993460		; ccccccccH
  0002a	f3 ab		 rep stosd
  0002c	a1 00 00 00 00	 mov	 eax, DWORD PTR ___security_cookie
  00031	33 c5		 xor	 eax, ebp
  00033	50		 push	 eax
  00034	8d 45 f4	 lea	 eax, DWORD PTR __$EHRec$[ebp]
  00037	64 a3 00 00 00
	00		 mov	 DWORD PTR fs:0, eax
  0003d	b9 00 00 00 00	 mov	 ecx, OFFSET __FFC6471F_type_traits
  00042	e8 00 00 00 00	 call	 @__CheckForDebuggerJustMyCode@4

; 1433 :     return static_cast<remove_reference_t<_Ty>&&>(_Arg);

  00047	8b 45 08	 mov	 eax, DWORD PTR __Arg$[ebp]

; 1434 : }

  0004a	8b 4d f4	 mov	 ecx, DWORD PTR __$EHRec$[ebp]
  0004d	64 89 0d 00 00
	00 00		 mov	 DWORD PTR fs:0, ecx
  00054	59		 pop	 ecx
  00055	5f		 pop	 edi
  00056	5e		 pop	 esi
  00057	5b		 pop	 ebx
  00058	81 c4 cc 00 00
	00		 add	 esp, 204		; 000000ccH
  0005e	3b ec		 cmp	 ebp, esp
  00060	e8 00 00 00 00	 call	 __RTC_CheckEsp
  00065	8b e5		 mov	 esp, ebp
  00067	5d		 pop	 ebp
  00068	c3		 ret	 0
_TEXT	ENDS
;	COMDAT text$x
text$x	SEGMENT
__ehhandler$??$move@AAV?$allocator@D@std@@@std@@YA$$QAV?$allocator@D@0@AAV10@@Z:
  00000	8b 54 24 08	 mov	 edx, DWORD PTR [esp+8]
  00004	8d 42 0c	 lea	 eax, DWORD PTR [edx+12]
  00007	8b 8a 30 ff ff
	ff		 mov	 ecx, DWORD PTR [edx-208]
  0000d	33 c8		 xor	 ecx, eax
  0000f	e8 00 00 00 00	 call	 @__security_check_cookie@4
  00014	b8 00 00 00 00	 mov	 eax, OFFSET __ehfuncinfo$??$move@AAV?$allocator@D@std@@@std@@YA$$QAV?$allocator@D@0@AAV10@@Z
  00019	e9 00 00 00 00	 jmp	 ___CxxFrameHandler3
text$x	ENDS
??$move@AAV?$allocator@D@std@@@std@@YA$$QAV?$allocator@D@0@AAV10@@Z ENDP ; std::move<std::allocator<char> &>
; Function compile flags: /Odtp /RTCsu /ZI
; File C:\Program Files (x86)\Microsoft Visual Studio\2019\Community\VC\Tools\MSVC\14.23.28105\include\xmemory
;	COMDAT ??$?0D@?$allocator@U_Container_proxy@std@@@std@@QAE@ABV?$allocator@D@1@@Z
_TEXT	SEGMENT
_this$ = -20						; size = 4
__$EHRec$ = -12						; size = 12
___formal$ = 8						; size = 4
??$?0D@?$allocator@U_Container_proxy@std@@@std@@QAE@ABV?$allocator@D@1@@Z PROC ; std::allocator<std::_Container_proxy>::allocator<std::_Container_proxy><char>, COMDAT
; _this$ = ecx

; 863  :     constexpr allocator(const allocator<_Other>&) noexcept {}

  00000	55		 push	 ebp
  00001	8b ec		 mov	 ebp, esp
  00003	6a ff		 push	 -1
  00005	68 00 00 00 00	 push	 __ehhandler$??$?0D@?$allocator@U_Container_proxy@std@@@std@@QAE@ABV?$allocator@D@1@@Z
  0000a	64 a1 00 00 00
	00		 mov	 eax, DWORD PTR fs:0
  00010	50		 push	 eax
  00011	81 ec cc 00 00
	00		 sub	 esp, 204		; 000000ccH
  00017	53		 push	 ebx
  00018	56		 push	 esi
  00019	57		 push	 edi
  0001a	51		 push	 ecx
  0001b	8d bd 28 ff ff
	ff		 lea	 edi, DWORD PTR [ebp-216]
  00021	b9 33 00 00 00	 mov	 ecx, 51			; 00000033H
  00026	b8 cc cc cc cc	 mov	 eax, -858993460		; ccccccccH
  0002b	f3 ab		 rep stosd
  0002d	59		 pop	 ecx
  0002e	a1 00 00 00 00	 mov	 eax, DWORD PTR ___security_cookie
  00033	33 c5		 xor	 eax, ebp
  00035	50		 push	 eax
  00036	8d 45 f4	 lea	 eax, DWORD PTR __$EHRec$[ebp]
  00039	64 a3 00 00 00
	00		 mov	 DWORD PTR fs:0, eax
  0003f	89 4d ec	 mov	 DWORD PTR _this$[ebp], ecx
  00042	b9 00 00 00 00	 mov	 ecx, OFFSET __DB4EB944_xmemory
  00047	e8 00 00 00 00	 call	 @__CheckForDebuggerJustMyCode@4
  0004c	8b 45 ec	 mov	 eax, DWORD PTR _this$[ebp]
  0004f	8b 4d f4	 mov	 ecx, DWORD PTR __$EHRec$[ebp]
  00052	64 89 0d 00 00
	00 00		 mov	 DWORD PTR fs:0, ecx
  00059	59		 pop	 ecx
  0005a	5f		 pop	 edi
  0005b	5e		 pop	 esi
  0005c	5b		 pop	 ebx
  0005d	81 c4 d8 00 00
	00		 add	 esp, 216		; 000000d8H
  00063	3b ec		 cmp	 ebp, esp
  00065	e8 00 00 00 00	 call	 __RTC_CheckEsp
  0006a	8b e5		 mov	 esp, ebp
  0006c	5d		 pop	 ebp
  0006d	c2 04 00	 ret	 4
_TEXT	ENDS
;	COMDAT text$x
text$x	SEGMENT
__ehhandler$??$?0D@?$allocator@U_Container_proxy@std@@@std@@QAE@ABV?$allocator@D@1@@Z:
  00000	8b 54 24 08	 mov	 edx, DWORD PTR [esp+8]
  00004	8d 42 0c	 lea	 eax, DWORD PTR [edx+12]
  00007	8b 8a 24 ff ff
	ff		 mov	 ecx, DWORD PTR [edx-220]
  0000d	33 c8		 xor	 ecx, eax
  0000f	e8 00 00 00 00	 call	 @__security_check_cookie@4
  00014	b8 00 00 00 00	 mov	 eax, OFFSET __ehfuncinfo$??$?0D@?$allocator@U_Container_proxy@std@@@std@@QAE@ABV?$allocator@D@1@@Z
  00019	e9 00 00 00 00	 jmp	 ___CxxFrameHandler3
text$x	ENDS
??$?0D@?$allocator@U_Container_proxy@std@@@std@@QAE@ABV?$allocator@D@1@@Z ENDP ; std::allocator<std::_Container_proxy>::allocator<std::_Container_proxy><char>
; Function compile flags: /Odtp /RTCsu /ZI
; File C:\Program Files (x86)\Microsoft Visual Studio\2019\Community\VC\Tools\MSVC\14.23.28105\include\xstddef
;	COMDAT ??$_Unfancy@D@std@@YAPADPAD@Z
_TEXT	SEGMENT
__Ptr$ = 8						; size = 4
??$_Unfancy@D@std@@YAPADPAD@Z PROC			; std::_Unfancy<char>, COMDAT

; 293  : _Ty* _Unfancy(_Ty* _Ptr) { // do nothing for plain pointers

  00000	55		 push	 ebp
  00001	8b ec		 mov	 ebp, esp
  00003	81 ec c0 00 00
	00		 sub	 esp, 192		; 000000c0H
  00009	53		 push	 ebx
  0000a	56		 push	 esi
  0000b	57		 push	 edi
  0000c	8d bd 40 ff ff
	ff		 lea	 edi, DWORD PTR [ebp-192]
  00012	b9 30 00 00 00	 mov	 ecx, 48			; 00000030H
  00017	b8 cc cc cc cc	 mov	 eax, -858993460		; ccccccccH
  0001c	f3 ab		 rep stosd
  0001e	b9 00 00 00 00	 mov	 ecx, OFFSET __46C44D95_xstddef
  00023	e8 00 00 00 00	 call	 @__CheckForDebuggerJustMyCode@4

; 294  :     return _Ptr;

  00028	8b 45 08	 mov	 eax, DWORD PTR __Ptr$[ebp]

; 295  : }

  0002b	5f		 pop	 edi
  0002c	5e		 pop	 esi
  0002d	5b		 pop	 ebx
  0002e	81 c4 c0 00 00
	00		 add	 esp, 192		; 000000c0H
  00034	3b ec		 cmp	 ebp, esp
  00036	e8 00 00 00 00	 call	 __RTC_CheckEsp
  0003b	8b e5		 mov	 esp, ebp
  0003d	5d		 pop	 ebp
  0003e	c3		 ret	 0
??$_Unfancy@D@std@@YAPADPAD@Z ENDP			; std::_Unfancy<char>
_TEXT	ENDS
; Function compile flags: /Odtp /RTCsu /ZI
; File C:\Program Files (x86)\Microsoft Visual Studio\2019\Community\VC\Tools\MSVC\14.23.28105\include\xmemory
;	COMDAT ??1?$_Container_proxy_ptr12@V?$allocator@U_Container_proxy@std@@@std@@@std@@QAE@XZ
_TEXT	SEGMENT
_this$ = -20						; size = 4
__$EHRec$ = -12						; size = 12
??1?$_Container_proxy_ptr12@V?$allocator@U_Container_proxy@std@@@std@@@std@@QAE@XZ PROC ; std::_Container_proxy_ptr12<std::allocator<std::_Container_proxy> >::~_Container_proxy_ptr12<std::allocator<std::_Container_proxy> >, COMDAT
; _this$ = ecx

; 1382 :     ~_Container_proxy_ptr12() {

  00000	55		 push	 ebp
  00001	8b ec		 mov	 ebp, esp
  00003	6a ff		 push	 -1
  00005	68 00 00 00 00	 push	 __ehhandler$??1?$_Container_proxy_ptr12@V?$allocator@U_Container_proxy@std@@@std@@@std@@QAE@XZ
  0000a	64 a1 00 00 00
	00		 mov	 eax, DWORD PTR fs:0
  00010	50		 push	 eax
  00011	81 ec cc 00 00
	00		 sub	 esp, 204		; 000000ccH
  00017	53		 push	 ebx
  00018	56		 push	 esi
  00019	57		 push	 edi
  0001a	51		 push	 ecx
  0001b	8d bd 28 ff ff
	ff		 lea	 edi, DWORD PTR [ebp-216]
  00021	b9 33 00 00 00	 mov	 ecx, 51			; 00000033H
  00026	b8 cc cc cc cc	 mov	 eax, -858993460		; ccccccccH
  0002b	f3 ab		 rep stosd
  0002d	59		 pop	 ecx
  0002e	a1 00 00 00 00	 mov	 eax, DWORD PTR ___security_cookie
  00033	33 c5		 xor	 eax, ebp
  00035	50		 push	 eax
  00036	8d 45 f4	 lea	 eax, DWORD PTR __$EHRec$[ebp]
  00039	64 a3 00 00 00
	00		 mov	 DWORD PTR fs:0, eax
  0003f	89 4d ec	 mov	 DWORD PTR _this$[ebp], ecx
  00042	b9 00 00 00 00	 mov	 ecx, OFFSET __DB4EB944_xmemory
  00047	e8 00 00 00 00	 call	 @__CheckForDebuggerJustMyCode@4

; 1383 :         if (_Ptr) {

  0004c	8b 45 ec	 mov	 eax, DWORD PTR _this$[ebp]
  0004f	83 38 00	 cmp	 DWORD PTR [eax], 0
  00052	74 15		 je	 SHORT $LN3@Container_

; 1384 :             _Delete_plain_internal(_Al, _Ptr);

  00054	8b 45 ec	 mov	 eax, DWORD PTR _this$[ebp]
  00057	8b 08		 mov	 ecx, DWORD PTR [eax]
  00059	51		 push	 ecx
  0005a	8b 55 ec	 mov	 edx, DWORD PTR _this$[ebp]
  0005d	8b 42 04	 mov	 eax, DWORD PTR [edx+4]
  00060	50		 push	 eax
  00061	e8 00 00 00 00	 call	 ??$_Delete_plain_internal@V?$allocator@U_Container_proxy@std@@@std@@@std@@YAXAAV?$allocator@U_Container_proxy@std@@@0@QAU_Container_proxy@0@@Z ; std::_Delete_plain_internal<std::allocator<std::_Container_proxy> >
  00066	83 c4 08	 add	 esp, 8
$LN3@Container_:

; 1385 :         }
; 1386 :     }

  00069	8b 4d f4	 mov	 ecx, DWORD PTR __$EHRec$[ebp]
  0006c	64 89 0d 00 00
	00 00		 mov	 DWORD PTR fs:0, ecx
  00073	59		 pop	 ecx
  00074	5f		 pop	 edi
  00075	5e		 pop	 esi
  00076	5b		 pop	 ebx
  00077	81 c4 d8 00 00
	00		 add	 esp, 216		; 000000d8H
  0007d	3b ec		 cmp	 ebp, esp
  0007f	e8 00 00 00 00	 call	 __RTC_CheckEsp
  00084	8b e5		 mov	 esp, ebp
  00086	5d		 pop	 ebp
  00087	c3		 ret	 0
_TEXT	ENDS
;	COMDAT text$x
text$x	SEGMENT
__ehhandler$??1?$_Container_proxy_ptr12@V?$allocator@U_Container_proxy@std@@@std@@@std@@QAE@XZ:
  00000	8b 54 24 08	 mov	 edx, DWORD PTR [esp+8]
  00004	8d 42 0c	 lea	 eax, DWORD PTR [edx+12]
  00007	8b 8a 24 ff ff
	ff		 mov	 ecx, DWORD PTR [edx-220]
  0000d	33 c8		 xor	 ecx, eax
  0000f	e8 00 00 00 00	 call	 @__security_check_cookie@4
  00014	b8 00 00 00 00	 mov	 eax, OFFSET __ehfuncinfo$??1?$_Container_proxy_ptr12@V?$allocator@U_Container_proxy@std@@@std@@@std@@QAE@XZ
  00019	e9 00 00 00 00	 jmp	 ___CxxFrameHandler3
text$x	ENDS
??1?$_Container_proxy_ptr12@V?$allocator@U_Container_proxy@std@@@std@@@std@@QAE@XZ ENDP ; std::_Container_proxy_ptr12<std::allocator<std::_Container_proxy> >::~_Container_proxy_ptr12<std::allocator<std::_Container_proxy> >
; Function compile flags: /Odtp /RTCsu /ZI
; File C:\Program Files (x86)\Microsoft Visual Studio\2019\Community\VC\Tools\MSVC\14.23.28105\include\xmemory
;	COMDAT ??0?$_Container_proxy_ptr12@V?$allocator@U_Container_proxy@std@@@std@@@std@@QAE@AAV?$allocator@U_Container_proxy@std@@@1@AAU_Container_base12@1@@Z
_TEXT	SEGMENT
$T1 = -212						; size = 4
_this$ = -8						; size = 4
__Al_$ = 8						; size = 4
__Mycont$ = 12						; size = 4
??0?$_Container_proxy_ptr12@V?$allocator@U_Container_proxy@std@@@std@@@std@@QAE@AAV?$allocator@U_Container_proxy@std@@@1@AAU_Container_base12@1@@Z PROC ; std::_Container_proxy_ptr12<std::allocator<std::_Container_proxy> >::_Container_proxy_ptr12<std::allocator<std::_Container_proxy> >, COMDAT
; _this$ = ecx

; 1368 :     _Container_proxy_ptr12(_Alloc& _Al_, _Container_base12& _Mycont)

  00000	55		 push	 ebp
  00001	8b ec		 mov	 ebp, esp
  00003	81 ec d8 00 00
	00		 sub	 esp, 216		; 000000d8H
  00009	53		 push	 ebx
  0000a	56		 push	 esi
  0000b	57		 push	 edi
  0000c	51		 push	 ecx
  0000d	8d bd 28 ff ff
	ff		 lea	 edi, DWORD PTR [ebp-216]
  00013	b9 36 00 00 00	 mov	 ecx, 54			; 00000036H
  00018	b8 cc cc cc cc	 mov	 eax, -858993460		; ccccccccH
  0001d	f3 ab		 rep stosd
  0001f	59		 pop	 ecx
  00020	89 4d f8	 mov	 DWORD PTR _this$[ebp], ecx
  00023	b9 00 00 00 00	 mov	 ecx, OFFSET __DB4EB944_xmemory
  00028	e8 00 00 00 00	 call	 @__CheckForDebuggerJustMyCode@4

; 1369 :         : _Al(_Al_) { // create a new _Container_proxy pointing at _Mycont

  0002d	8b 45 f8	 mov	 eax, DWORD PTR _this$[ebp]
  00030	8b 4d 08	 mov	 ecx, DWORD PTR __Al_$[ebp]
  00033	89 48 04	 mov	 DWORD PTR [eax+4], ecx

; 1370 :         _Ptr = _Unfancy(_Al_.allocate(1));

  00036	6a 01		 push	 1
  00038	8b 4d 08	 mov	 ecx, DWORD PTR __Al_$[ebp]
  0003b	e8 00 00 00 00	 call	 ?allocate@?$allocator@U_Container_proxy@std@@@std@@QAEPAU_Container_proxy@2@I@Z ; std::allocator<std::_Container_proxy>::allocate
  00040	50		 push	 eax
  00041	e8 00 00 00 00	 call	 ??$_Unfancy@U_Container_proxy@std@@@std@@YAPAU_Container_proxy@0@PAU10@@Z ; std::_Unfancy<std::_Container_proxy>
  00046	83 c4 04	 add	 esp, 4
  00049	8b 4d f8	 mov	 ecx, DWORD PTR _this$[ebp]
  0004c	89 01		 mov	 DWORD PTR [ecx], eax

; 1371 :         _Construct_in_place(*_Ptr, _STD addressof(_Mycont));

  0004e	8b 45 0c	 mov	 eax, DWORD PTR __Mycont$[ebp]
  00051	50		 push	 eax
  00052	e8 00 00 00 00	 call	 ??$addressof@U_Container_base12@std@@@std@@YAPAU_Container_base12@0@AAU10@@Z ; std::addressof<std::_Container_base12>
  00057	83 c4 04	 add	 esp, 4
  0005a	89 85 2c ff ff
	ff		 mov	 DWORD PTR $T1[ebp], eax
  00060	8d 8d 2c ff ff
	ff		 lea	 ecx, DWORD PTR $T1[ebp]
  00066	51		 push	 ecx
  00067	8b 55 f8	 mov	 edx, DWORD PTR _this$[ebp]
  0006a	8b 02		 mov	 eax, DWORD PTR [edx]
  0006c	50		 push	 eax
  0006d	e8 00 00 00 00	 call	 ??$_Construct_in_place@U_Container_proxy@std@@PAU_Container_base12@2@@std@@YAXAAU_Container_proxy@0@$$QAPAU_Container_base12@0@@Z ; std::_Construct_in_place<std::_Container_proxy,std::_Container_base12 *>
  00072	83 c4 08	 add	 esp, 8

; 1372 :         _Mycont._Myproxy = _Ptr;

  00075	8b 45 0c	 mov	 eax, DWORD PTR __Mycont$[ebp]
  00078	8b 4d f8	 mov	 ecx, DWORD PTR _this$[ebp]
  0007b	8b 11		 mov	 edx, DWORD PTR [ecx]
  0007d	89 10		 mov	 DWORD PTR [eax], edx

; 1373 :     }

  0007f	8b 45 f8	 mov	 eax, DWORD PTR _this$[ebp]
  00082	5f		 pop	 edi
  00083	5e		 pop	 esi
  00084	5b		 pop	 ebx
  00085	81 c4 d8 00 00
	00		 add	 esp, 216		; 000000d8H
  0008b	3b ec		 cmp	 ebp, esp
  0008d	e8 00 00 00 00	 call	 __RTC_CheckEsp
  00092	8b e5		 mov	 esp, ebp
  00094	5d		 pop	 ebp
  00095	c2 08 00	 ret	 8
??0?$_Container_proxy_ptr12@V?$allocator@U_Container_proxy@std@@@std@@@std@@QAE@AAV?$allocator@U_Container_proxy@std@@@1@AAU_Container_base12@1@@Z ENDP ; std::_Container_proxy_ptr12<std::allocator<std::_Container_proxy> >::_Container_proxy_ptr12<std::allocator<std::_Container_proxy> >
_TEXT	ENDS
; Function compile flags: /Odtp /RTCsu /ZI
; File C:\Program Files (x86)\Microsoft Visual Studio\2019\Community\VC\Tools\MSVC\14.23.28105\include\xmemory
;	COMDAT ??$_Delete_plain_internal@V?$allocator@U_Container_proxy@std@@@std@@@std@@YAXAAV?$allocator@U_Container_proxy@std@@@0@QAU_Container_proxy@0@@Z
_TEXT	SEGMENT
__$EHRec$ = -12						; size = 12
__Al$ = 8						; size = 4
__Ptr$ = 12						; size = 4
??$_Delete_plain_internal@V?$allocator@U_Container_proxy@std@@@std@@@std@@YAXAAV?$allocator@U_Container_proxy@std@@@0@QAU_Container_proxy@0@@Z PROC ; std::_Delete_plain_internal<std::allocator<std::_Container_proxy> >, COMDAT

; 1109 : void _Delete_plain_internal(_Alloc& _Al, typename _Alloc::value_type* const _Ptr) noexcept {

  00000	55		 push	 ebp
  00001	8b ec		 mov	 ebp, esp
  00003	6a ff		 push	 -1
  00005	68 00 00 00 00	 push	 __ehhandler$??$_Delete_plain_internal@V?$allocator@U_Container_proxy@std@@@std@@@std@@YAXAAV?$allocator@U_Container_proxy@std@@@0@QAU_Container_proxy@0@@Z
  0000a	64 a1 00 00 00
	00		 mov	 eax, DWORD PTR fs:0
  00010	50		 push	 eax
  00011	81 ec c0 00 00
	00		 sub	 esp, 192		; 000000c0H
  00017	53		 push	 ebx
  00018	56		 push	 esi
  00019	57		 push	 edi
  0001a	8d bd 34 ff ff
	ff		 lea	 edi, DWORD PTR [ebp-204]
  00020	b9 30 00 00 00	 mov	 ecx, 48			; 00000030H
  00025	b8 cc cc cc cc	 mov	 eax, -858993460		; ccccccccH
  0002a	f3 ab		 rep stosd
  0002c	a1 00 00 00 00	 mov	 eax, DWORD PTR ___security_cookie
  00031	33 c5		 xor	 eax, ebp
  00033	50		 push	 eax
  00034	8d 45 f4	 lea	 eax, DWORD PTR __$EHRec$[ebp]
  00037	64 a3 00 00 00
	00		 mov	 DWORD PTR fs:0, eax
  0003d	b9 00 00 00 00	 mov	 ecx, OFFSET __DB4EB944_xmemory
  00042	e8 00 00 00 00	 call	 @__CheckForDebuggerJustMyCode@4

; 1110 :     // destroy *_Ptr in place, then deallocate _Ptr using _Al; used for internal container types the user didn't name
; 1111 :     using _Ty = typename _Alloc::value_type;
; 1112 :     _Ptr->~_Ty();
; 1113 :     _Deallocate_plain(_Al, _Ptr);

  00047	8b 45 0c	 mov	 eax, DWORD PTR __Ptr$[ebp]
  0004a	50		 push	 eax
  0004b	8b 4d 08	 mov	 ecx, DWORD PTR __Al$[ebp]
  0004e	51		 push	 ecx
  0004f	e8 00 00 00 00	 call	 ??$_Deallocate_plain@V?$allocator@U_Container_proxy@std@@@std@@@std@@YAXAAV?$allocator@U_Container_proxy@std@@@0@QAU_Container_proxy@0@@Z ; std::_Deallocate_plain<std::allocator<std::_Container_proxy> >
  00054	83 c4 08	 add	 esp, 8

; 1114 : }

  00057	8b 4d f4	 mov	 ecx, DWORD PTR __$EHRec$[ebp]
  0005a	64 89 0d 00 00
	00 00		 mov	 DWORD PTR fs:0, ecx
  00061	59		 pop	 ecx
  00062	5f		 pop	 edi
  00063	5e		 pop	 esi
  00064	5b		 pop	 ebx
  00065	81 c4 cc 00 00
	00		 add	 esp, 204		; 000000ccH
  0006b	3b ec		 cmp	 ebp, esp
  0006d	e8 00 00 00 00	 call	 __RTC_CheckEsp
  00072	8b e5		 mov	 esp, ebp
  00074	5d		 pop	 ebp
  00075	c3		 ret	 0
_TEXT	ENDS
;	COMDAT text$x
text$x	SEGMENT
__ehhandler$??$_Delete_plain_internal@V?$allocator@U_Container_proxy@std@@@std@@@std@@YAXAAV?$allocator@U_Container_proxy@std@@@0@QAU_Container_proxy@0@@Z:
  00000	8b 54 24 08	 mov	 edx, DWORD PTR [esp+8]
  00004	8d 42 0c	 lea	 eax, DWORD PTR [edx+12]
  00007	8b 8a 30 ff ff
	ff		 mov	 ecx, DWORD PTR [edx-208]
  0000d	33 c8		 xor	 ecx, eax
  0000f	e8 00 00 00 00	 call	 @__security_check_cookie@4
  00014	b8 00 00 00 00	 mov	 eax, OFFSET __ehfuncinfo$??$_Delete_plain_internal@V?$allocator@U_Container_proxy@std@@@std@@@std@@YAXAAV?$allocator@U_Container_proxy@std@@@0@QAU_Container_proxy@0@@Z
  00019	e9 00 00 00 00	 jmp	 ___CxxFrameHandler3
text$x	ENDS
??$_Delete_plain_internal@V?$allocator@U_Container_proxy@std@@@std@@@std@@YAXAAV?$allocator@U_Container_proxy@std@@@0@QAU_Container_proxy@0@@Z ENDP ; std::_Delete_plain_internal<std::allocator<std::_Container_proxy> >
; Function compile flags: /Odtp /RTCsu /ZI
; File C:\Program Files (x86)\Microsoft Visual Studio\2019\Community\VC\Tools\MSVC\14.23.28105\include\xmemory
;	COMDAT ?allocate@?$allocator@U_Container_proxy@std@@@std@@QAEPAU_Container_proxy@2@I@Z
_TEXT	SEGMENT
_this$ = -8						; size = 4
__Count$ = 8						; size = 4
?allocate@?$allocator@U_Container_proxy@std@@@std@@QAEPAU_Container_proxy@2@I@Z PROC ; std::allocator<std::_Container_proxy>::allocate, COMDAT
; _this$ = ecx

; 870  :     _NODISCARD _DECLSPEC_ALLOCATOR _Ty* allocate(_CRT_GUARDOVERFLOW const size_t _Count) {

  00000	55		 push	 ebp
  00001	8b ec		 mov	 ebp, esp
  00003	81 ec cc 00 00
	00		 sub	 esp, 204		; 000000ccH
  00009	53		 push	 ebx
  0000a	56		 push	 esi
  0000b	57		 push	 edi
  0000c	51		 push	 ecx
  0000d	8d bd 34 ff ff
	ff		 lea	 edi, DWORD PTR [ebp-204]
  00013	b9 33 00 00 00	 mov	 ecx, 51			; 00000033H
  00018	b8 cc cc cc cc	 mov	 eax, -858993460		; ccccccccH
  0001d	f3 ab		 rep stosd
  0001f	59		 pop	 ecx
  00020	89 4d f8	 mov	 DWORD PTR _this$[ebp], ecx
  00023	b9 00 00 00 00	 mov	 ecx, OFFSET __DB4EB944_xmemory
  00028	e8 00 00 00 00	 call	 @__CheckForDebuggerJustMyCode@4

; 871  :         return static_cast<_Ty*>(_Allocate<_New_alignof<_Ty>>(_Get_size_of_n<sizeof(_Ty)>(_Count)));

  0002d	8b 45 08	 mov	 eax, DWORD PTR __Count$[ebp]
  00030	50		 push	 eax
  00031	e8 00 00 00 00	 call	 ??$_Get_size_of_n@$07@std@@YAII@Z ; std::_Get_size_of_n<8>
  00036	83 c4 04	 add	 esp, 4
  00039	50		 push	 eax
  0003a	e8 00 00 00 00	 call	 ??$_Allocate@$07U_Default_allocate_traits@std@@$0A@@std@@YAPAXI@Z ; std::_Allocate<8,std::_Default_allocate_traits,0>
  0003f	83 c4 04	 add	 esp, 4

; 872  :     }

  00042	5f		 pop	 edi
  00043	5e		 pop	 esi
  00044	5b		 pop	 ebx
  00045	81 c4 cc 00 00
	00		 add	 esp, 204		; 000000ccH
  0004b	3b ec		 cmp	 ebp, esp
  0004d	e8 00 00 00 00	 call	 __RTC_CheckEsp
  00052	8b e5		 mov	 esp, ebp
  00054	5d		 pop	 ebp
  00055	c2 04 00	 ret	 4
?allocate@?$allocator@U_Container_proxy@std@@@std@@QAEPAU_Container_proxy@2@I@Z ENDP ; std::allocator<std::_Container_proxy>::allocate
_TEXT	ENDS
; Function compile flags: /Odtp /RTCsu /ZI
; File C:\Program Files (x86)\Microsoft Visual Studio\2019\Community\VC\Tools\MSVC\14.23.28105\include\type_traits
;	COMDAT ??$move@AAV?$basic_string@DU?$char_traits@D@std@@V?$allocator@D@2@@std@@@std@@YA$$QAV?$basic_string@DU?$char_traits@D@std@@V?$allocator@D@2@@0@AAV10@@Z
_TEXT	SEGMENT
__$EHRec$ = -12						; size = 12
__Arg$ = 8						; size = 4
??$move@AAV?$basic_string@DU?$char_traits@D@std@@V?$allocator@D@2@@std@@@std@@YA$$QAV?$basic_string@DU?$char_traits@D@std@@V?$allocator@D@2@@0@AAV10@@Z PROC ; std::move<std::basic_string<char,std::char_traits<char>,std::allocator<char> > &>, COMDAT

; 1432 : _NODISCARD constexpr remove_reference_t<_Ty>&& move(_Ty&& _Arg) noexcept { // forward _Arg as movable

  00000	55		 push	 ebp
  00001	8b ec		 mov	 ebp, esp
  00003	6a ff		 push	 -1
  00005	68 00 00 00 00	 push	 __ehhandler$??$move@AAV?$basic_string@DU?$char_traits@D@std@@V?$allocator@D@2@@std@@@std@@YA$$QAV?$basic_string@DU?$char_traits@D@std@@V?$allocator@D@2@@0@AAV10@@Z
  0000a	64 a1 00 00 00
	00		 mov	 eax, DWORD PTR fs:0
  00010	50		 push	 eax
  00011	81 ec c0 00 00
	00		 sub	 esp, 192		; 000000c0H
  00017	53		 push	 ebx
  00018	56		 push	 esi
  00019	57		 push	 edi
  0001a	8d bd 34 ff ff
	ff		 lea	 edi, DWORD PTR [ebp-204]
  00020	b9 30 00 00 00	 mov	 ecx, 48			; 00000030H
  00025	b8 cc cc cc cc	 mov	 eax, -858993460		; ccccccccH
  0002a	f3 ab		 rep stosd
  0002c	a1 00 00 00 00	 mov	 eax, DWORD PTR ___security_cookie
  00031	33 c5		 xor	 eax, ebp
  00033	50		 push	 eax
  00034	8d 45 f4	 lea	 eax, DWORD PTR __$EHRec$[ebp]
  00037	64 a3 00 00 00
	00		 mov	 DWORD PTR fs:0, eax
  0003d	b9 00 00 00 00	 mov	 ecx, OFFSET __FFC6471F_type_traits
  00042	e8 00 00 00 00	 call	 @__CheckForDebuggerJustMyCode@4

; 1433 :     return static_cast<remove_reference_t<_Ty>&&>(_Arg);

  00047	8b 45 08	 mov	 eax, DWORD PTR __Arg$[ebp]

; 1434 : }

  0004a	8b 4d f4	 mov	 ecx, DWORD PTR __$EHRec$[ebp]
  0004d	64 89 0d 00 00
	00 00		 mov	 DWORD PTR fs:0, ecx
  00054	59		 pop	 ecx
  00055	5f		 pop	 edi
  00056	5e		 pop	 esi
  00057	5b		 pop	 ebx
  00058	81 c4 cc 00 00
	00		 add	 esp, 204		; 000000ccH
  0005e	3b ec		 cmp	 ebp, esp
  00060	e8 00 00 00 00	 call	 __RTC_CheckEsp
  00065	8b e5		 mov	 esp, ebp
  00067	5d		 pop	 ebp
  00068	c3		 ret	 0
_TEXT	ENDS
;	COMDAT text$x
text$x	SEGMENT
__ehhandler$??$move@AAV?$basic_string@DU?$char_traits@D@std@@V?$allocator@D@2@@std@@@std@@YA$$QAV?$basic_string@DU?$char_traits@D@std@@V?$allocator@D@2@@0@AAV10@@Z:
  00000	8b 54 24 08	 mov	 edx, DWORD PTR [esp+8]
  00004	8d 42 0c	 lea	 eax, DWORD PTR [edx+12]
  00007	8b 8a 30 ff ff
	ff		 mov	 ecx, DWORD PTR [edx-208]
  0000d	33 c8		 xor	 ecx, eax
  0000f	e8 00 00 00 00	 call	 @__security_check_cookie@4
  00014	b8 00 00 00 00	 mov	 eax, OFFSET __ehfuncinfo$??$move@AAV?$basic_string@DU?$char_traits@D@std@@V?$allocator@D@2@@std@@@std@@YA$$QAV?$basic_string@DU?$char_traits@D@std@@V?$allocator@D@2@@0@AAV10@@Z
  00019	e9 00 00 00 00	 jmp	 ___CxxFrameHandler3
text$x	ENDS
??$move@AAV?$basic_string@DU?$char_traits@D@std@@V?$allocator@D@2@@std@@@std@@YA$$QAV?$basic_string@DU?$char_traits@D@std@@V?$allocator@D@2@@0@AAV10@@Z ENDP ; std::move<std::basic_string<char,std::char_traits<char>,std::allocator<char> > &>
; Function compile flags: /Odtp /RTCsu /ZI
; File C:\Program Files (x86)\Microsoft Visual Studio\2019\Community\VC\Tools\MSVC\14.23.28105\include\ostream
;	COMDAT ??Bsentry@?$basic_ostream@DU?$char_traits@D@std@@@std@@QBE_NXZ
_TEXT	SEGMENT
_this$ = -8						; size = 4
??Bsentry@?$basic_ostream@DU?$char_traits@D@std@@@std@@QBE_NXZ PROC ; std::basic_ostream<char,std::char_traits<char> >::sentry::operator bool, COMDAT
; _this$ = ecx

; 130  :         explicit __CLR_OR_THIS_CALL operator bool() const { // test if stream state okay

  00000	55		 push	 ebp
  00001	8b ec		 mov	 ebp, esp
  00003	81 ec cc 00 00
	00		 sub	 esp, 204		; 000000ccH
  00009	53		 push	 ebx
  0000a	56		 push	 esi
  0000b	57		 push	 edi
  0000c	51		 push	 ecx
  0000d	8d bd 34 ff ff
	ff		 lea	 edi, DWORD PTR [ebp-204]
  00013	b9 33 00 00 00	 mov	 ecx, 51			; 00000033H
  00018	b8 cc cc cc cc	 mov	 eax, -858993460		; ccccccccH
  0001d	f3 ab		 rep stosd
  0001f	59		 pop	 ecx
  00020	89 4d f8	 mov	 DWORD PTR _this$[ebp], ecx
  00023	b9 00 00 00 00	 mov	 ecx, OFFSET __63B3912D_ostream
  00028	e8 00 00 00 00	 call	 @__CheckForDebuggerJustMyCode@4

; 131  :             return _Ok;

  0002d	8b 45 f8	 mov	 eax, DWORD PTR _this$[ebp]
  00030	8a 40 04	 mov	 al, BYTE PTR [eax+4]

; 132  :         }

  00033	5f		 pop	 edi
  00034	5e		 pop	 esi
  00035	5b		 pop	 ebx
  00036	81 c4 cc 00 00
	00		 add	 esp, 204		; 000000ccH
  0003c	3b ec		 cmp	 ebp, esp
  0003e	e8 00 00 00 00	 call	 __RTC_CheckEsp
  00043	8b e5		 mov	 esp, ebp
  00045	5d		 pop	 ebp
  00046	c3		 ret	 0
??Bsentry@?$basic_ostream@DU?$char_traits@D@std@@@std@@QBE_NXZ ENDP ; std::basic_ostream<char,std::char_traits<char> >::sentry::operator bool
_TEXT	ENDS
; Function compile flags: /Odtp /RTCsu /ZI
; File C:\Program Files (x86)\Microsoft Visual Studio\2019\Community\VC\Tools\MSVC\14.23.28105\include\ostream
;	COMDAT ??1sentry@?$basic_ostream@DU?$char_traits@D@std@@@std@@QAE@XZ
_TEXT	SEGMENT
_this$ = -20						; size = 4
__$EHRec$ = -12						; size = 12
??1sentry@?$basic_ostream@DU?$char_traits@D@std@@@std@@QAE@XZ PROC ; std::basic_ostream<char,std::char_traits<char> >::sentry::~sentry, COMDAT
; _this$ = ecx

; 115  :         __CLR_OR_THIS_CALL ~sentry() noexcept {

  00000	55		 push	 ebp
  00001	8b ec		 mov	 ebp, esp
  00003	6a ff		 push	 -1
  00005	68 00 00 00 00	 push	 __ehhandler$??1sentry@?$basic_ostream@DU?$char_traits@D@std@@@std@@QAE@XZ
  0000a	64 a1 00 00 00
	00		 mov	 eax, DWORD PTR fs:0
  00010	50		 push	 eax
  00011	81 ec cc 00 00
	00		 sub	 esp, 204		; 000000ccH
  00017	53		 push	 ebx
  00018	56		 push	 esi
  00019	57		 push	 edi
  0001a	51		 push	 ecx
  0001b	8d bd 28 ff ff
	ff		 lea	 edi, DWORD PTR [ebp-216]
  00021	b9 33 00 00 00	 mov	 ecx, 51			; 00000033H
  00026	b8 cc cc cc cc	 mov	 eax, -858993460		; ccccccccH
  0002b	f3 ab		 rep stosd
  0002d	59		 pop	 ecx
  0002e	a1 00 00 00 00	 mov	 eax, DWORD PTR ___security_cookie
  00033	33 c5		 xor	 eax, ebp
  00035	50		 push	 eax
  00036	8d 45 f4	 lea	 eax, DWORD PTR __$EHRec$[ebp]
  00039	64 a3 00 00 00
	00		 mov	 DWORD PTR fs:0, eax
  0003f	89 4d ec	 mov	 DWORD PTR _this$[ebp], ecx
  00042	b9 00 00 00 00	 mov	 ecx, OFFSET __63B3912D_ostream
  00047	e8 00 00 00 00	 call	 @__CheckForDebuggerJustMyCode@4

; 116  : #if _HAS_EXCEPTIONS
; 117  :             if (!_STD uncaught_exception()) { // TRANSITION, OS#15518458

  0004c	e8 00 00 00 00	 call	 ?uncaught_exception@std@@YA_NXZ ; std::uncaught_exception
  00051	0f b6 c0	 movzx	 eax, al
  00054	85 c0		 test	 eax, eax
  00056	75 14		 jne	 SHORT $LN1@sentry

; 118  :                 this->_Myostr._Osfx();

  00058	8b f4		 mov	 esi, esp
  0005a	8b 45 ec	 mov	 eax, DWORD PTR _this$[ebp]
  0005d	8b 08		 mov	 ecx, DWORD PTR [eax]
  0005f	ff 15 00 00 00
	00		 call	 DWORD PTR __imp_?_Osfx@?$basic_ostream@DU?$char_traits@D@std@@@std@@QAEXXZ
  00065	3b f4		 cmp	 esi, esp
  00067	e8 00 00 00 00	 call	 __RTC_CheckEsp
$LN1@sentry:

; 119  :             }
; 120  : #else // _HAS_EXCEPTIONS
; 121  :             this->_Myostr._Osfx();
; 122  : #endif // _HAS_EXCEPTIONS
; 123  :         }

  0006c	8b 4d ec	 mov	 ecx, DWORD PTR _this$[ebp]
  0006f	e8 00 00 00 00	 call	 ??1_Sentry_base@?$basic_ostream@DU?$char_traits@D@std@@@std@@QAE@XZ ; std::basic_ostream<char,std::char_traits<char> >::_Sentry_base::~_Sentry_base
  00074	8b 4d f4	 mov	 ecx, DWORD PTR __$EHRec$[ebp]
  00077	64 89 0d 00 00
	00 00		 mov	 DWORD PTR fs:0, ecx
  0007e	59		 pop	 ecx
  0007f	5f		 pop	 edi
  00080	5e		 pop	 esi
  00081	5b		 pop	 ebx
  00082	81 c4 d8 00 00
	00		 add	 esp, 216		; 000000d8H
  00088	3b ec		 cmp	 ebp, esp
  0008a	e8 00 00 00 00	 call	 __RTC_CheckEsp
  0008f	8b e5		 mov	 esp, ebp
  00091	5d		 pop	 ebp
  00092	c3		 ret	 0
_TEXT	ENDS
;	COMDAT text$x
text$x	SEGMENT
__ehhandler$??1sentry@?$basic_ostream@DU?$char_traits@D@std@@@std@@QAE@XZ:
  00000	8b 54 24 08	 mov	 edx, DWORD PTR [esp+8]
  00004	8d 42 0c	 lea	 eax, DWORD PTR [edx+12]
  00007	8b 8a 24 ff ff
	ff		 mov	 ecx, DWORD PTR [edx-220]
  0000d	33 c8		 xor	 ecx, eax
  0000f	e8 00 00 00 00	 call	 @__security_check_cookie@4
  00014	b8 00 00 00 00	 mov	 eax, OFFSET __ehfuncinfo$??1sentry@?$basic_ostream@DU?$char_traits@D@std@@@std@@QAE@XZ
  00019	e9 00 00 00 00	 jmp	 ___CxxFrameHandler3
text$x	ENDS
??1sentry@?$basic_ostream@DU?$char_traits@D@std@@@std@@QAE@XZ ENDP ; std::basic_ostream<char,std::char_traits<char> >::sentry::~sentry
; Function compile flags: /Odtp /RTCsu /ZI
; File C:\Program Files (x86)\Microsoft Visual Studio\2019\Community\VC\Tools\MSVC\14.23.28105\include\ostream
;	COMDAT ??0sentry@?$basic_ostream@DU?$char_traits@D@std@@@std@@QAE@AAV12@@Z
_TEXT	SEGMENT
__Tied$ = -32						; size = 4
_this$ = -20						; size = 4
__$EHRec$ = -12						; size = 12
__Ostr$ = 8						; size = 4
??0sentry@?$basic_ostream@DU?$char_traits@D@std@@@std@@QAE@AAV12@@Z PROC ; std::basic_ostream<char,std::char_traits<char> >::sentry::sentry, COMDAT
; _this$ = ecx

; 90   :         explicit __CLR_OR_THIS_CALL sentry(basic_ostream& _Ostr)

  00000	55		 push	 ebp
  00001	8b ec		 mov	 ebp, esp
  00003	6a ff		 push	 -1
  00005	68 00 00 00 00	 push	 __ehhandler$??0sentry@?$basic_ostream@DU?$char_traits@D@std@@@std@@QAE@AAV12@@Z
  0000a	64 a1 00 00 00
	00		 mov	 eax, DWORD PTR fs:0
  00010	50		 push	 eax
  00011	81 ec d8 00 00
	00		 sub	 esp, 216		; 000000d8H
  00017	53		 push	 ebx
  00018	56		 push	 esi
  00019	57		 push	 edi
  0001a	51		 push	 ecx
  0001b	8d bd 1c ff ff
	ff		 lea	 edi, DWORD PTR [ebp-228]
  00021	b9 36 00 00 00	 mov	 ecx, 54			; 00000036H
  00026	b8 cc cc cc cc	 mov	 eax, -858993460		; ccccccccH
  0002b	f3 ab		 rep stosd
  0002d	59		 pop	 ecx
  0002e	a1 00 00 00 00	 mov	 eax, DWORD PTR ___security_cookie
  00033	33 c5		 xor	 eax, ebp
  00035	50		 push	 eax
  00036	8d 45 f4	 lea	 eax, DWORD PTR __$EHRec$[ebp]
  00039	64 a3 00 00 00
	00		 mov	 DWORD PTR fs:0, eax
  0003f	89 4d ec	 mov	 DWORD PTR _this$[ebp], ecx
  00042	b9 00 00 00 00	 mov	 ecx, OFFSET __63B3912D_ostream
  00047	e8 00 00 00 00	 call	 @__CheckForDebuggerJustMyCode@4

; 91   :             : _Sentry_base(_Ostr) { // construct locking and testing stream

  0004c	8b 45 08	 mov	 eax, DWORD PTR __Ostr$[ebp]
  0004f	50		 push	 eax
  00050	8b 4d ec	 mov	 ecx, DWORD PTR _this$[ebp]
  00053	e8 00 00 00 00	 call	 ??0_Sentry_base@?$basic_ostream@DU?$char_traits@D@std@@@std@@QAE@AAV12@@Z ; std::basic_ostream<char,std::char_traits<char> >::_Sentry_base::_Sentry_base
  00058	c7 45 fc 00 00
	00 00		 mov	 DWORD PTR __$EHRec$[ebp+8], 0

; 92   :             if (!_Ostr.good()) {

  0005f	8b 45 08	 mov	 eax, DWORD PTR __Ostr$[ebp]
  00062	8b 08		 mov	 ecx, DWORD PTR [eax]
  00064	8b 55 08	 mov	 edx, DWORD PTR __Ostr$[ebp]
  00067	03 51 04	 add	 edx, DWORD PTR [ecx+4]
  0006a	8b f4		 mov	 esi, esp
  0006c	8b ca		 mov	 ecx, edx
  0006e	ff 15 00 00 00
	00		 call	 DWORD PTR __imp_?good@ios_base@std@@QBE_NXZ
  00074	3b f4		 cmp	 esi, esp
  00076	e8 00 00 00 00	 call	 __RTC_CheckEsp
  0007b	0f b6 c0	 movzx	 eax, al
  0007e	85 c0		 test	 eax, eax
  00080	75 09		 jne	 SHORT $LN2@sentry

; 93   :                 _Ok = false;

  00082	8b 45 ec	 mov	 eax, DWORD PTR _this$[ebp]
  00085	c6 40 04 00	 mov	 BYTE PTR [eax+4], 0

; 94   :                 return;

  00089	eb 6a		 jmp	 SHORT $LN1@sentry
$LN2@sentry:

; 95   :             }
; 96   : 
; 97   :             const auto _Tied = _Ostr.tie();

  0008b	8b 45 08	 mov	 eax, DWORD PTR __Ostr$[ebp]
  0008e	8b 08		 mov	 ecx, DWORD PTR [eax]
  00090	8b 55 08	 mov	 edx, DWORD PTR __Ostr$[ebp]
  00093	03 51 04	 add	 edx, DWORD PTR [ecx+4]
  00096	8b f4		 mov	 esi, esp
  00098	8b ca		 mov	 ecx, edx
  0009a	ff 15 00 00 00
	00		 call	 DWORD PTR __imp_?tie@?$basic_ios@DU?$char_traits@D@std@@@std@@QBEPAV?$basic_ostream@DU?$char_traits@D@std@@@2@XZ
  000a0	3b f4		 cmp	 esi, esp
  000a2	e8 00 00 00 00	 call	 __RTC_CheckEsp
  000a7	89 45 e0	 mov	 DWORD PTR __Tied$[ebp], eax

; 98   :             if (!_Tied || _Tied == &_Ostr) {

  000aa	83 7d e0 00	 cmp	 DWORD PTR __Tied$[ebp], 0
  000ae	74 08		 je	 SHORT $LN4@sentry
  000b0	8b 45 e0	 mov	 eax, DWORD PTR __Tied$[ebp]
  000b3	3b 45 08	 cmp	 eax, DWORD PTR __Ostr$[ebp]
  000b6	75 09		 jne	 SHORT $LN3@sentry
$LN4@sentry:

; 99   :                 _Ok = true;

  000b8	8b 45 ec	 mov	 eax, DWORD PTR _this$[ebp]
  000bb	c6 40 04 01	 mov	 BYTE PTR [eax+4], 1

; 100  :                 return;

  000bf	eb 34		 jmp	 SHORT $LN1@sentry
$LN3@sentry:

; 101  :             }
; 102  : 
; 103  : 
; 104  :             _Tied->flush();

  000c1	8b f4		 mov	 esi, esp
  000c3	8b 4d e0	 mov	 ecx, DWORD PTR __Tied$[ebp]
  000c6	ff 15 00 00 00
	00		 call	 DWORD PTR __imp_?flush@?$basic_ostream@DU?$char_traits@D@std@@@std@@QAEAAV12@XZ
  000cc	3b f4		 cmp	 esi, esp
  000ce	e8 00 00 00 00	 call	 __RTC_CheckEsp

; 105  :             _Ok = _Ostr.good(); // store test only after flushing tie

  000d3	8b 45 08	 mov	 eax, DWORD PTR __Ostr$[ebp]
  000d6	8b 08		 mov	 ecx, DWORD PTR [eax]
  000d8	8b 55 08	 mov	 edx, DWORD PTR __Ostr$[ebp]
  000db	03 51 04	 add	 edx, DWORD PTR [ecx+4]
  000de	8b f4		 mov	 esi, esp
  000e0	8b ca		 mov	 ecx, edx
  000e2	ff 15 00 00 00
	00		 call	 DWORD PTR __imp_?good@ios_base@std@@QBE_NXZ
  000e8	3b f4		 cmp	 esi, esp
  000ea	e8 00 00 00 00	 call	 __RTC_CheckEsp
  000ef	8b 4d ec	 mov	 ecx, DWORD PTR _this$[ebp]
  000f2	88 41 04	 mov	 BYTE PTR [ecx+4], al
$LN1@sentry:

; 106  :         }

  000f5	c7 45 fc ff ff
	ff ff		 mov	 DWORD PTR __$EHRec$[ebp+8], -1
  000fc	8b 45 ec	 mov	 eax, DWORD PTR _this$[ebp]
  000ff	8b 4d f4	 mov	 ecx, DWORD PTR __$EHRec$[ebp]
  00102	64 89 0d 00 00
	00 00		 mov	 DWORD PTR fs:0, ecx
  00109	59		 pop	 ecx
  0010a	5f		 pop	 edi
  0010b	5e		 pop	 esi
  0010c	5b		 pop	 ebx
  0010d	81 c4 e4 00 00
	00		 add	 esp, 228		; 000000e4H
  00113	3b ec		 cmp	 ebp, esp
  00115	e8 00 00 00 00	 call	 __RTC_CheckEsp
  0011a	8b e5		 mov	 esp, ebp
  0011c	5d		 pop	 ebp
  0011d	c2 04 00	 ret	 4
_TEXT	ENDS
;	COMDAT text$x
text$x	SEGMENT
__unwindfunclet$??0sentry@?$basic_ostream@DU?$char_traits@D@std@@@std@@QAE@AAV12@@Z$0:
  00000	8b 4d ec	 mov	 ecx, DWORD PTR _this$[ebp]
  00003	e9 00 00 00 00	 jmp	 ??1_Sentry_base@?$basic_ostream@DU?$char_traits@D@std@@@std@@QAE@XZ ; std::basic_ostream<char,std::char_traits<char> >::_Sentry_base::~_Sentry_base
__ehhandler$??0sentry@?$basic_ostream@DU?$char_traits@D@std@@@std@@QAE@AAV12@@Z:
  00008	8b 54 24 08	 mov	 edx, DWORD PTR [esp+8]
  0000c	8d 42 0c	 lea	 eax, DWORD PTR [edx+12]
  0000f	8b 8a 18 ff ff
	ff		 mov	 ecx, DWORD PTR [edx-232]
  00015	33 c8		 xor	 ecx, eax
  00017	e8 00 00 00 00	 call	 @__security_check_cookie@4
  0001c	b8 00 00 00 00	 mov	 eax, OFFSET __ehfuncinfo$??0sentry@?$basic_ostream@DU?$char_traits@D@std@@@std@@QAE@AAV12@@Z
  00021	e9 00 00 00 00	 jmp	 ___CxxFrameHandler3
text$x	ENDS
??0sentry@?$basic_ostream@DU?$char_traits@D@std@@@std@@QAE@AAV12@@Z ENDP ; std::basic_ostream<char,std::char_traits<char> >::sentry::sentry
; Function compile flags: /Odtp /RTCsu /ZI
; File C:\Program Files (x86)\Microsoft Visual Studio\2019\Community\VC\Tools\MSVC\14.23.28105\include\ostream
;	COMDAT ??1_Sentry_base@?$basic_ostream@DU?$char_traits@D@std@@@std@@QAE@XZ
_TEXT	SEGMENT
tv72 = -232						; size = 4
__Rdbuf$ = -32						; size = 4
_this$ = -20						; size = 4
__$EHRec$ = -12						; size = 12
??1_Sentry_base@?$basic_ostream@DU?$char_traits@D@std@@@std@@QAE@XZ PROC ; std::basic_ostream<char,std::char_traits<char> >::_Sentry_base::~_Sentry_base, COMDAT
; _this$ = ecx

; 76   :         __CLR_OR_THIS_CALL ~_Sentry_base() noexcept { // destroy after unlocking

  00000	55		 push	 ebp
  00001	8b ec		 mov	 ebp, esp
  00003	6a ff		 push	 -1
  00005	68 00 00 00 00	 push	 __ehhandler$??1_Sentry_base@?$basic_ostream@DU?$char_traits@D@std@@@std@@QAE@XZ
  0000a	64 a1 00 00 00
	00		 mov	 eax, DWORD PTR fs:0
  00010	50		 push	 eax
  00011	81 ec dc 00 00
	00		 sub	 esp, 220		; 000000dcH
  00017	53		 push	 ebx
  00018	56		 push	 esi
  00019	57		 push	 edi
  0001a	51		 push	 ecx
  0001b	8d bd 18 ff ff
	ff		 lea	 edi, DWORD PTR [ebp-232]
  00021	b9 37 00 00 00	 mov	 ecx, 55			; 00000037H
  00026	b8 cc cc cc cc	 mov	 eax, -858993460		; ccccccccH
  0002b	f3 ab		 rep stosd
  0002d	59		 pop	 ecx
  0002e	a1 00 00 00 00	 mov	 eax, DWORD PTR ___security_cookie
  00033	33 c5		 xor	 eax, ebp
  00035	50		 push	 eax
  00036	8d 45 f4	 lea	 eax, DWORD PTR __$EHRec$[ebp]
  00039	64 a3 00 00 00
	00		 mov	 DWORD PTR fs:0, eax
  0003f	89 4d ec	 mov	 DWORD PTR _this$[ebp], ecx
  00042	b9 00 00 00 00	 mov	 ecx, OFFSET __63B3912D_ostream
  00047	e8 00 00 00 00	 call	 @__CheckForDebuggerJustMyCode@4

; 77   :             const auto _Rdbuf = _Myostr.rdbuf();

  0004c	8b 45 ec	 mov	 eax, DWORD PTR _this$[ebp]
  0004f	8b 08		 mov	 ecx, DWORD PTR [eax]
  00051	89 8d 18 ff ff
	ff		 mov	 DWORD PTR tv72[ebp], ecx
  00057	8b 95 18 ff ff
	ff		 mov	 edx, DWORD PTR tv72[ebp]
  0005d	8b 02		 mov	 eax, DWORD PTR [edx]
  0005f	8b 8d 18 ff ff
	ff		 mov	 ecx, DWORD PTR tv72[ebp]
  00065	03 48 04	 add	 ecx, DWORD PTR [eax+4]
  00068	8b f4		 mov	 esi, esp
  0006a	ff 15 00 00 00
	00		 call	 DWORD PTR __imp_?rdbuf@?$basic_ios@DU?$char_traits@D@std@@@std@@QBEPAV?$basic_streambuf@DU?$char_traits@D@std@@@2@XZ
  00070	3b f4		 cmp	 esi, esp
  00072	e8 00 00 00 00	 call	 __RTC_CheckEsp
  00077	89 45 e0	 mov	 DWORD PTR __Rdbuf$[ebp], eax

; 78   :             if (_Rdbuf) {

  0007a	83 7d e0 00	 cmp	 DWORD PTR __Rdbuf$[ebp], 0
  0007e	74 16		 je	 SHORT $LN3@Sentry_bas

; 79   :                 _Rdbuf->_Unlock();

  00080	8b 45 e0	 mov	 eax, DWORD PTR __Rdbuf$[ebp]
  00083	8b 10		 mov	 edx, DWORD PTR [eax]
  00085	8b f4		 mov	 esi, esp
  00087	8b 4d e0	 mov	 ecx, DWORD PTR __Rdbuf$[ebp]
  0008a	8b 42 08	 mov	 eax, DWORD PTR [edx+8]
  0008d	ff d0		 call	 eax
  0008f	3b f4		 cmp	 esi, esp
  00091	e8 00 00 00 00	 call	 __RTC_CheckEsp
$LN3@Sentry_bas:

; 80   :             }
; 81   :         }

  00096	8b 4d f4	 mov	 ecx, DWORD PTR __$EHRec$[ebp]
  00099	64 89 0d 00 00
	00 00		 mov	 DWORD PTR fs:0, ecx
  000a0	59		 pop	 ecx
  000a1	5f		 pop	 edi
  000a2	5e		 pop	 esi
  000a3	5b		 pop	 ebx
  000a4	81 c4 e8 00 00
	00		 add	 esp, 232		; 000000e8H
  000aa	3b ec		 cmp	 ebp, esp
  000ac	e8 00 00 00 00	 call	 __RTC_CheckEsp
  000b1	8b e5		 mov	 esp, ebp
  000b3	5d		 pop	 ebp
  000b4	c3		 ret	 0
_TEXT	ENDS
;	COMDAT text$x
text$x	SEGMENT
__ehhandler$??1_Sentry_base@?$basic_ostream@DU?$char_traits@D@std@@@std@@QAE@XZ:
  00000	8b 54 24 08	 mov	 edx, DWORD PTR [esp+8]
  00004	8d 42 0c	 lea	 eax, DWORD PTR [edx+12]
  00007	8b 8a 14 ff ff
	ff		 mov	 ecx, DWORD PTR [edx-236]
  0000d	33 c8		 xor	 ecx, eax
  0000f	e8 00 00 00 00	 call	 @__security_check_cookie@4
  00014	b8 00 00 00 00	 mov	 eax, OFFSET __ehfuncinfo$??1_Sentry_base@?$basic_ostream@DU?$char_traits@D@std@@@std@@QAE@XZ
  00019	e9 00 00 00 00	 jmp	 ___CxxFrameHandler3
text$x	ENDS
??1_Sentry_base@?$basic_ostream@DU?$char_traits@D@std@@@std@@QAE@XZ ENDP ; std::basic_ostream<char,std::char_traits<char> >::_Sentry_base::~_Sentry_base
; Function compile flags: /Odtp /RTCsu /ZI
; File C:\Program Files (x86)\Microsoft Visual Studio\2019\Community\VC\Tools\MSVC\14.23.28105\include\ostream
;	COMDAT ??0_Sentry_base@?$basic_ostream@DU?$char_traits@D@std@@@std@@QAE@AAV12@@Z
_TEXT	SEGMENT
tv73 = -220						; size = 4
__Rdbuf$ = -20						; size = 4
_this$ = -8						; size = 4
__Ostr$ = 8						; size = 4
??0_Sentry_base@?$basic_ostream@DU?$char_traits@D@std@@@std@@QAE@AAV12@@Z PROC ; std::basic_ostream<char,std::char_traits<char> >::_Sentry_base::_Sentry_base, COMDAT
; _this$ = ecx

; 69   :         __CLR_OR_THIS_CALL _Sentry_base(basic_ostream& _Ostr) : _Myostr(_Ostr) { // lock the stream buffer, if there

  00000	55		 push	 ebp
  00001	8b ec		 mov	 ebp, esp
  00003	81 ec dc 00 00
	00		 sub	 esp, 220		; 000000dcH
  00009	53		 push	 ebx
  0000a	56		 push	 esi
  0000b	57		 push	 edi
  0000c	51		 push	 ecx
  0000d	8d bd 24 ff ff
	ff		 lea	 edi, DWORD PTR [ebp-220]
  00013	b9 37 00 00 00	 mov	 ecx, 55			; 00000037H
  00018	b8 cc cc cc cc	 mov	 eax, -858993460		; ccccccccH
  0001d	f3 ab		 rep stosd
  0001f	59		 pop	 ecx
  00020	89 4d f8	 mov	 DWORD PTR _this$[ebp], ecx
  00023	b9 00 00 00 00	 mov	 ecx, OFFSET __63B3912D_ostream
  00028	e8 00 00 00 00	 call	 @__CheckForDebuggerJustMyCode@4
  0002d	8b 45 f8	 mov	 eax, DWORD PTR _this$[ebp]
  00030	8b 4d 08	 mov	 ecx, DWORD PTR __Ostr$[ebp]
  00033	89 08		 mov	 DWORD PTR [eax], ecx

; 70   :             const auto _Rdbuf = _Myostr.rdbuf();

  00035	8b 45 f8	 mov	 eax, DWORD PTR _this$[ebp]
  00038	8b 08		 mov	 ecx, DWORD PTR [eax]
  0003a	89 8d 24 ff ff
	ff		 mov	 DWORD PTR tv73[ebp], ecx
  00040	8b 95 24 ff ff
	ff		 mov	 edx, DWORD PTR tv73[ebp]
  00046	8b 02		 mov	 eax, DWORD PTR [edx]
  00048	8b 8d 24 ff ff
	ff		 mov	 ecx, DWORD PTR tv73[ebp]
  0004e	03 48 04	 add	 ecx, DWORD PTR [eax+4]
  00051	8b f4		 mov	 esi, esp
  00053	ff 15 00 00 00
	00		 call	 DWORD PTR __imp_?rdbuf@?$basic_ios@DU?$char_traits@D@std@@@std@@QBEPAV?$basic_streambuf@DU?$char_traits@D@std@@@2@XZ
  00059	3b f4		 cmp	 esi, esp
  0005b	e8 00 00 00 00	 call	 __RTC_CheckEsp
  00060	89 45 ec	 mov	 DWORD PTR __Rdbuf$[ebp], eax

; 71   :             if (_Rdbuf) {

  00063	83 7d ec 00	 cmp	 DWORD PTR __Rdbuf$[ebp], 0
  00067	74 16		 je	 SHORT $LN1@Sentry_bas

; 72   :                 _Rdbuf->_Lock();

  00069	8b 45 ec	 mov	 eax, DWORD PTR __Rdbuf$[ebp]
  0006c	8b 10		 mov	 edx, DWORD PTR [eax]
  0006e	8b f4		 mov	 esi, esp
  00070	8b 4d ec	 mov	 ecx, DWORD PTR __Rdbuf$[ebp]
  00073	8b 42 04	 mov	 eax, DWORD PTR [edx+4]
  00076	ff d0		 call	 eax
  00078	3b f4		 cmp	 esi, esp
  0007a	e8 00 00 00 00	 call	 __RTC_CheckEsp
$LN1@Sentry_bas:

; 73   :             }
; 74   :         }

  0007f	8b 45 f8	 mov	 eax, DWORD PTR _this$[ebp]
  00082	5f		 pop	 edi
  00083	5e		 pop	 esi
  00084	5b		 pop	 ebx
  00085	81 c4 dc 00 00
	00		 add	 esp, 220		; 000000dcH
  0008b	3b ec		 cmp	 ebp, esp
  0008d	e8 00 00 00 00	 call	 __RTC_CheckEsp
  00092	8b e5		 mov	 esp, ebp
  00094	5d		 pop	 ebp
  00095	c2 04 00	 ret	 4
??0_Sentry_base@?$basic_ostream@DU?$char_traits@D@std@@@std@@QAE@AAV12@@Z ENDP ; std::basic_ostream<char,std::char_traits<char> >::_Sentry_base::_Sentry_base
_TEXT	ENDS
; Function compile flags: /Odtp /RTCsu /ZI
; File C:\Program Files (x86)\Windows Kits\10\Include\10.0.18362.0\ucrt\string.h
;	COMDAT ??$strcat_s@$05@@YAHAAY05DPBD@Z
_TEXT	SEGMENT
__Destination$ = 8					; size = 4
__Source$ = 12						; size = 4
??$strcat_s@$05@@YAHAAY05DPBD@Z PROC			; strcat_s<6>, COMDAT

; 79   : __DEFINE_CPP_OVERLOAD_SECURE_FUNC_0_1(

  00000	55		 push	 ebp
  00001	8b ec		 mov	 ebp, esp
  00003	81 ec c0 00 00
	00		 sub	 esp, 192		; 000000c0H
  00009	53		 push	 ebx
  0000a	56		 push	 esi
  0000b	57		 push	 edi
  0000c	8d bd 40 ff ff
	ff		 lea	 edi, DWORD PTR [ebp-192]
  00012	b9 30 00 00 00	 mov	 ecx, 48			; 00000030H
  00017	b8 cc cc cc cc	 mov	 eax, -858993460		; ccccccccH
  0001c	f3 ab		 rep stosd
  0001e	b9 00 00 00 00	 mov	 ecx, OFFSET __A29A7DFB_string@h
  00023	e8 00 00 00 00	 call	 @__CheckForDebuggerJustMyCode@4
  00028	8b f4		 mov	 esi, esp
  0002a	8b 45 0c	 mov	 eax, DWORD PTR __Source$[ebp]
  0002d	50		 push	 eax
  0002e	6a 06		 push	 6
  00030	8b 4d 08	 mov	 ecx, DWORD PTR __Destination$[ebp]
  00033	51		 push	 ecx
  00034	ff 15 00 00 00
	00		 call	 DWORD PTR __imp__strcat_s
  0003a	83 c4 0c	 add	 esp, 12			; 0000000cH
  0003d	3b f4		 cmp	 esi, esp
  0003f	e8 00 00 00 00	 call	 __RTC_CheckEsp
  00044	5f		 pop	 edi
  00045	5e		 pop	 esi
  00046	5b		 pop	 ebx
  00047	81 c4 c0 00 00
	00		 add	 esp, 192		; 000000c0H
  0004d	3b ec		 cmp	 ebp, esp
  0004f	e8 00 00 00 00	 call	 __RTC_CheckEsp
  00054	8b e5		 mov	 esp, ebp
  00056	5d		 pop	 ebp
  00057	c3		 ret	 0
??$strcat_s@$05@@YAHAAY05DPBD@Z ENDP			; strcat_s<6>
_TEXT	ENDS
; Function compile flags: /Odtp /RTCsu /ZI
; File C:\Program Files (x86)\Microsoft Visual Studio\2019\Community\VC\Tools\MSVC\14.23.28105\include\ostream
;	COMDAT ??$endl@DU?$char_traits@D@std@@@std@@YAAAV?$basic_ostream@DU?$char_traits@D@std@@@0@AAV10@@Z
_TEXT	SEGMENT
__Ostr$ = 8						; size = 4
??$endl@DU?$char_traits@D@std@@@std@@YAAAV?$basic_ostream@DU?$char_traits@D@std@@@0@AAV10@@Z PROC ; std::endl<char,std::char_traits<char> >, COMDAT

; 950  :     basic_ostream<_Elem, _Traits>& _Ostr) { // insert newline and flush stream

  00000	55		 push	 ebp
  00001	8b ec		 mov	 ebp, esp
  00003	81 ec c0 00 00
	00		 sub	 esp, 192		; 000000c0H
  00009	53		 push	 ebx
  0000a	56		 push	 esi
  0000b	57		 push	 edi
  0000c	8d bd 40 ff ff
	ff		 lea	 edi, DWORD PTR [ebp-192]
  00012	b9 30 00 00 00	 mov	 ecx, 48			; 00000030H
  00017	b8 cc cc cc cc	 mov	 eax, -858993460		; ccccccccH
  0001c	f3 ab		 rep stosd
  0001e	b9 00 00 00 00	 mov	 ecx, OFFSET __63B3912D_ostream
  00023	e8 00 00 00 00	 call	 @__CheckForDebuggerJustMyCode@4

; 951  :     _Ostr.put(_Ostr.widen('\n'));

  00028	8b f4		 mov	 esi, esp
  0002a	6a 0a		 push	 10			; 0000000aH
  0002c	8b 45 08	 mov	 eax, DWORD PTR __Ostr$[ebp]
  0002f	8b 08		 mov	 ecx, DWORD PTR [eax]
  00031	8b 55 08	 mov	 edx, DWORD PTR __Ostr$[ebp]
  00034	03 51 04	 add	 edx, DWORD PTR [ecx+4]
  00037	8b ca		 mov	 ecx, edx
  00039	ff 15 00 00 00
	00		 call	 DWORD PTR __imp_?widen@?$basic_ios@DU?$char_traits@D@std@@@std@@QBEDD@Z
  0003f	3b f4		 cmp	 esi, esp
  00041	e8 00 00 00 00	 call	 __RTC_CheckEsp
  00046	8b f4		 mov	 esi, esp
  00048	0f b6 c0	 movzx	 eax, al
  0004b	50		 push	 eax
  0004c	8b 4d 08	 mov	 ecx, DWORD PTR __Ostr$[ebp]
  0004f	ff 15 00 00 00
	00		 call	 DWORD PTR __imp_?put@?$basic_ostream@DU?$char_traits@D@std@@@std@@QAEAAV12@D@Z
  00055	3b f4		 cmp	 esi, esp
  00057	e8 00 00 00 00	 call	 __RTC_CheckEsp

; 952  :     _Ostr.flush();

  0005c	8b f4		 mov	 esi, esp
  0005e	8b 4d 08	 mov	 ecx, DWORD PTR __Ostr$[ebp]
  00061	ff 15 00 00 00
	00		 call	 DWORD PTR __imp_?flush@?$basic_ostream@DU?$char_traits@D@std@@@std@@QAEAAV12@XZ
  00067	3b f4		 cmp	 esi, esp
  00069	e8 00 00 00 00	 call	 __RTC_CheckEsp

; 953  :     return _Ostr;

  0006e	8b 45 08	 mov	 eax, DWORD PTR __Ostr$[ebp]

; 954  : }

  00071	5f		 pop	 edi
  00072	5e		 pop	 esi
  00073	5b		 pop	 ebx
  00074	81 c4 c0 00 00
	00		 add	 esp, 192		; 000000c0H
  0007a	3b ec		 cmp	 ebp, esp
  0007c	e8 00 00 00 00	 call	 __RTC_CheckEsp
  00081	8b e5		 mov	 esp, ebp
  00083	5d		 pop	 ebp
  00084	c3		 ret	 0
??$endl@DU?$char_traits@D@std@@@std@@YAAAV?$basic_ostream@DU?$char_traits@D@std@@@0@AAV10@@Z ENDP ; std::endl<char,std::char_traits<char> >
_TEXT	ENDS
; Function compile flags: /Odtp /RTCsu /ZI
; File C:\Program Files (x86)\Microsoft Visual Studio\2019\Community\VC\Tools\MSVC\14.23.28105\include\ostream
;	COMDAT ??$?6U?$char_traits@D@std@@@std@@YAAAV?$basic_ostream@DU?$char_traits@D@std@@@0@AAV10@PBD@Z
_TEXT	SEGMENT
tv135 = -356						; size = 8
tv343 = -348						; size = 8
tv291 = -344						; size = 4
tv288 = -344						; size = 8
tv286 = -344						; size = 4
tv329 = -340						; size = 8
tv290 = -340						; size = 4
tv285 = -340						; size = 4
tv287 = -336						; size = 4
tv137 = -336						; size = 4
tv289 = -333						; size = 1
tv284 = -333						; size = 1
$T2 = -328						; size = 4
$T3 = -316						; size = 4
$T4 = -304						; size = 4
$T5 = -292						; size = 4
$T6 = -280						; size = 4
__Ok$ = -76						; size = 8
__Pad$ = -60						; size = 8
__Count$ = -44						; size = 8
__State$ = -28						; size = 4
__$ArrayPad$ = -20					; size = 4
__$EHRec$ = -16						; size = 16
__Ostr$ = 8						; size = 4
__Val$ = 12						; size = 4
??$?6U?$char_traits@D@std@@@std@@YAAAV?$basic_ostream@DU?$char_traits@D@std@@@0@AAV10@PBD@Z PROC ; std::operator<<<std::char_traits<char> >, COMDAT

; 738  :     const char* _Val) { // insert NTBS into char stream

  00000	55		 push	 ebp
  00001	8b ec		 mov	 ebp, esp
  00003	6a ff		 push	 -1
  00005	68 00 00 00 00	 push	 __ehhandler$??$?6U?$char_traits@D@std@@@std@@YAAAV?$basic_ostream@DU?$char_traits@D@std@@@0@AAV10@PBD@Z
  0000a	64 a1 00 00 00
	00		 mov	 eax, DWORD PTR fs:0
  00010	50		 push	 eax
  00011	51		 push	 ecx
  00012	81 ec 54 01 00
	00		 sub	 esp, 340		; 00000154H
  00018	53		 push	 ebx
  00019	56		 push	 esi
  0001a	57		 push	 edi
  0001b	8d bd 9c fe ff
	ff		 lea	 edi, DWORD PTR [ebp-356]
  00021	b9 55 00 00 00	 mov	 ecx, 85			; 00000055H
  00026	b8 cc cc cc cc	 mov	 eax, -858993460		; ccccccccH
  0002b	f3 ab		 rep stosd
  0002d	a1 00 00 00 00	 mov	 eax, DWORD PTR ___security_cookie
  00032	33 c5		 xor	 eax, ebp
  00034	89 45 ec	 mov	 DWORD PTR __$ArrayPad$[ebp], eax
  00037	50		 push	 eax
  00038	8d 45 f4	 lea	 eax, DWORD PTR __$EHRec$[ebp+4]
  0003b	64 a3 00 00 00
	00		 mov	 DWORD PTR fs:0, eax
  00041	89 65 f0	 mov	 DWORD PTR __$EHRec$[ebp], esp
  00044	b9 00 00 00 00	 mov	 ecx, OFFSET __63B3912D_ostream
  00049	e8 00 00 00 00	 call	 @__CheckForDebuggerJustMyCode@4

; 739  :     using _Elem = char;
; 740  :     using _Myos = basic_ostream<_Elem, _Traits>;
; 741  : 
; 742  :     ios_base::iostate _State = ios_base::goodbit;

  0004e	c7 45 e4 00 00
	00 00		 mov	 DWORD PTR __State$[ebp], 0

; 743  :     streamsize _Count        = static_cast<streamsize>(_Traits::length(_Val));

  00055	8b 45 0c	 mov	 eax, DWORD PTR __Val$[ebp]
  00058	50		 push	 eax
  00059	e8 00 00 00 00	 call	 ?length@?$_Narrow_char_traits@DH@std@@SAIQBD@Z ; std::_Narrow_char_traits<char,int>::length
  0005e	83 c4 04	 add	 esp, 4
  00061	33 c9		 xor	 ecx, ecx
  00063	89 45 d4	 mov	 DWORD PTR __Count$[ebp], eax
  00066	89 4d d8	 mov	 DWORD PTR __Count$[ebp+4], ecx

; 744  :     streamsize _Pad          = _Ostr.width() <= 0 || _Ostr.width() <= _Count ? 0 : _Ostr.width() - _Count;

  00069	8b 45 08	 mov	 eax, DWORD PTR __Ostr$[ebp]
  0006c	8b 08		 mov	 ecx, DWORD PTR [eax]
  0006e	8b 55 08	 mov	 edx, DWORD PTR __Ostr$[ebp]
  00071	03 51 04	 add	 edx, DWORD PTR [ecx+4]
  00074	8b f4		 mov	 esi, esp
  00076	8b ca		 mov	 ecx, edx
  00078	ff 15 00 00 00
	00		 call	 DWORD PTR __imp_?width@ios_base@std@@QBE_JXZ
  0007e	3b f4		 cmp	 esi, esp
  00080	e8 00 00 00 00	 call	 __RTC_CheckEsp
  00085	89 85 ac fe ff
	ff		 mov	 DWORD PTR tv329[ebp], eax
  0008b	89 95 b0 fe ff
	ff		 mov	 DWORD PTR tv329[ebp+4], edx
  00091	83 bd b0 fe ff
	ff 00		 cmp	 DWORD PTR tv329[ebp+4], 0
  00098	7c 79		 jl	 SHORT $LN17@operator
  0009a	7f 09		 jg	 SHORT $LN24@operator
  0009c	83 bd ac fe ff
	ff 00		 cmp	 DWORD PTR tv329[ebp], 0
  000a3	76 6e		 jbe	 SHORT $LN17@operator
$LN24@operator:
  000a5	8b 45 08	 mov	 eax, DWORD PTR __Ostr$[ebp]
  000a8	8b 08		 mov	 ecx, DWORD PTR [eax]
  000aa	8b 55 08	 mov	 edx, DWORD PTR __Ostr$[ebp]
  000ad	03 51 04	 add	 edx, DWORD PTR [ecx+4]
  000b0	8b f4		 mov	 esi, esp
  000b2	8b ca		 mov	 ecx, edx
  000b4	ff 15 00 00 00
	00		 call	 DWORD PTR __imp_?width@ios_base@std@@QBE_JXZ
  000ba	3b f4		 cmp	 esi, esp
  000bc	e8 00 00 00 00	 call	 __RTC_CheckEsp
  000c1	89 85 a4 fe ff
	ff		 mov	 DWORD PTR tv343[ebp], eax
  000c7	89 95 a8 fe ff
	ff		 mov	 DWORD PTR tv343[ebp+4], edx
  000cd	8b 85 a8 fe ff
	ff		 mov	 eax, DWORD PTR tv343[ebp+4]
  000d3	3b 45 d8	 cmp	 eax, DWORD PTR __Count$[ebp+4]
  000d6	7c 3b		 jl	 SHORT $LN17@operator
  000d8	7f 0b		 jg	 SHORT $LN25@operator
  000da	8b 8d a4 fe ff
	ff		 mov	 ecx, DWORD PTR tv343[ebp]
  000e0	3b 4d d4	 cmp	 ecx, DWORD PTR __Count$[ebp]
  000e3	76 2e		 jbe	 SHORT $LN17@operator
$LN25@operator:
  000e5	8b 55 08	 mov	 edx, DWORD PTR __Ostr$[ebp]
  000e8	8b 02		 mov	 eax, DWORD PTR [edx]
  000ea	8b 4d 08	 mov	 ecx, DWORD PTR __Ostr$[ebp]
  000ed	03 48 04	 add	 ecx, DWORD PTR [eax+4]
  000f0	8b f4		 mov	 esi, esp
  000f2	ff 15 00 00 00
	00		 call	 DWORD PTR __imp_?width@ios_base@std@@QBE_JXZ
  000f8	3b f4		 cmp	 esi, esp
  000fa	e8 00 00 00 00	 call	 __RTC_CheckEsp
  000ff	2b 45 d4	 sub	 eax, DWORD PTR __Count$[ebp]
  00102	1b 55 d8	 sbb	 edx, DWORD PTR __Count$[ebp+4]
  00105	89 85 9c fe ff
	ff		 mov	 DWORD PTR tv135[ebp], eax
  0010b	89 95 a0 fe ff
	ff		 mov	 DWORD PTR tv135[ebp+4], edx
  00111	eb 0b		 jmp	 SHORT $LN18@operator
$LN17@operator:
  00113	0f 57 c0	 xorps	 xmm0, xmm0
  00116	66 0f 13 85 9c
	fe ff ff	 movlpd	 QWORD PTR tv135[ebp], xmm0
$LN18@operator:
  0011e	8b 8d 9c fe ff
	ff		 mov	 ecx, DWORD PTR tv135[ebp]
  00124	89 4d c4	 mov	 DWORD PTR __Pad$[ebp], ecx
  00127	8b 95 a0 fe ff
	ff		 mov	 edx, DWORD PTR tv135[ebp+4]
  0012d	89 55 c8	 mov	 DWORD PTR __Pad$[ebp+4], edx

; 745  :     const typename _Myos::sentry _Ok(_Ostr);

  00130	8b 45 08	 mov	 eax, DWORD PTR __Ostr$[ebp]
  00133	50		 push	 eax
  00134	8d 4d b4	 lea	 ecx, DWORD PTR __Ok$[ebp]
  00137	e8 00 00 00 00	 call	 ??0sentry@?$basic_ostream@DU?$char_traits@D@std@@@std@@QAE@AAV12@@Z ; std::basic_ostream<char,std::char_traits<char> >::sentry::sentry
  0013c	c7 45 fc 00 00
	00 00		 mov	 DWORD PTR __$EHRec$[ebp+12], 0

; 746  : 
; 747  :     if (!_Ok) {

  00143	8d 4d b4	 lea	 ecx, DWORD PTR __Ok$[ebp]
  00146	e8 00 00 00 00	 call	 ??Bsentry@?$basic_ostream@DU?$char_traits@D@std@@@std@@QBE_NXZ ; std::basic_ostream<char,std::char_traits<char> >::sentry::operator bool
  0014b	0f b6 c0	 movzx	 eax, al
  0014e	85 c0		 test	 eax, eax
  00150	75 0e		 jne	 SHORT $LN8@operator

; 748  :         _State |= ios_base::badbit;

  00152	8b 45 e4	 mov	 eax, DWORD PTR __State$[ebp]
  00155	83 c8 04	 or	 eax, 4
  00158	89 45 e4	 mov	 DWORD PTR __State$[ebp], eax

; 749  :     } else { // state okay, insert

  0015b	e9 ba 02 00 00	 jmp	 $LN9@operator
$LN8@operator:

; 750  :         _TRY_IO_BEGIN

  00160	c6 45 fc 01	 mov	 BYTE PTR __$EHRec$[ebp+12], 1

; 751  :         if ((_Ostr.flags() & ios_base::adjustfield) != ios_base::left) {

  00164	8b 45 08	 mov	 eax, DWORD PTR __Ostr$[ebp]
  00167	8b 08		 mov	 ecx, DWORD PTR [eax]
  00169	8b 55 08	 mov	 edx, DWORD PTR __Ostr$[ebp]
  0016c	03 51 04	 add	 edx, DWORD PTR [ecx+4]
  0016f	8b f4		 mov	 esi, esp
  00171	8b ca		 mov	 ecx, edx
  00173	ff 15 00 00 00
	00		 call	 DWORD PTR __imp_?flags@ios_base@std@@QBEHXZ
  00179	3b f4		 cmp	 esi, esp
  0017b	e8 00 00 00 00	 call	 __RTC_CheckEsp
  00180	89 85 b0 fe ff
	ff		 mov	 DWORD PTR tv137[ebp], eax
  00186	8b 85 b0 fe ff
	ff		 mov	 eax, DWORD PTR tv137[ebp]
  0018c	25 c0 01 00 00	 and	 eax, 448		; 000001c0H
  00191	83 f8 40	 cmp	 eax, 64			; 00000040H
  00194	0f 84 d5 00 00
	00		 je	 $LN11@operator

; 752  :             for (; 0 < _Pad; --_Pad) { // pad on left

  0019a	eb 12		 jmp	 SHORT $LN4@operator
$LN2@operator:
  0019c	8b 45 c4	 mov	 eax, DWORD PTR __Pad$[ebp]
  0019f	83 e8 01	 sub	 eax, 1
  001a2	8b 4d c8	 mov	 ecx, DWORD PTR __Pad$[ebp+4]
  001a5	83 d9 00	 sbb	 ecx, 0
  001a8	89 45 c4	 mov	 DWORD PTR __Pad$[ebp], eax
  001ab	89 4d c8	 mov	 DWORD PTR __Pad$[ebp+4], ecx
$LN4@operator:
  001ae	83 7d c8 00	 cmp	 DWORD PTR __Pad$[ebp+4], 0
  001b2	0f 8c b7 00 00
	00		 jl	 $LN11@operator
  001b8	7f 0a		 jg	 SHORT $LN26@operator
  001ba	83 7d c4 00	 cmp	 DWORD PTR __Pad$[ebp], 0
  001be	0f 86 ab 00 00
	00		 jbe	 $LN11@operator
$LN26@operator:

; 753  :                 if (_Traits::eq_int_type(_Traits::eof(), _Ostr.rdbuf()->sputc(_Ostr.fill()))) {

  001c4	8b 45 08	 mov	 eax, DWORD PTR __Ostr$[ebp]
  001c7	8b 08		 mov	 ecx, DWORD PTR [eax]
  001c9	8b 55 08	 mov	 edx, DWORD PTR __Ostr$[ebp]
  001cc	03 51 04	 add	 edx, DWORD PTR [ecx+4]
  001cf	8b f4		 mov	 esi, esp
  001d1	8b ca		 mov	 ecx, edx
  001d3	ff 15 00 00 00
	00		 call	 DWORD PTR __imp_?fill@?$basic_ios@DU?$char_traits@D@std@@@std@@QBEDXZ
  001d9	3b f4		 cmp	 esi, esp
  001db	e8 00 00 00 00	 call	 __RTC_CheckEsp
  001e0	88 85 b3 fe ff
	ff		 mov	 BYTE PTR tv284[ebp], al
  001e6	8b 45 08	 mov	 eax, DWORD PTR __Ostr$[ebp]
  001e9	8b 08		 mov	 ecx, DWORD PTR [eax]
  001eb	8b 55 08	 mov	 edx, DWORD PTR __Ostr$[ebp]
  001ee	03 51 04	 add	 edx, DWORD PTR [ecx+4]
  001f1	8b f4		 mov	 esi, esp
  001f3	8b ca		 mov	 ecx, edx
  001f5	ff 15 00 00 00
	00		 call	 DWORD PTR __imp_?rdbuf@?$basic_ios@DU?$char_traits@D@std@@@std@@QBEPAV?$basic_streambuf@DU?$char_traits@D@std@@@2@XZ
  001fb	3b f4		 cmp	 esi, esp
  001fd	e8 00 00 00 00	 call	 __RTC_CheckEsp
  00202	89 85 ac fe ff
	ff		 mov	 DWORD PTR tv285[ebp], eax
  00208	8b f4		 mov	 esi, esp
  0020a	0f b6 85 b3 fe
	ff ff		 movzx	 eax, BYTE PTR tv284[ebp]
  00211	50		 push	 eax
  00212	8b 8d ac fe ff
	ff		 mov	 ecx, DWORD PTR tv285[ebp]
  00218	ff 15 00 00 00
	00		 call	 DWORD PTR __imp_?sputc@?$basic_streambuf@DU?$char_traits@D@std@@@std@@QAEHD@Z
  0021e	3b f4		 cmp	 esi, esp
  00220	e8 00 00 00 00	 call	 __RTC_CheckEsp
  00225	89 85 a8 fe ff
	ff		 mov	 DWORD PTR tv286[ebp], eax
  0022b	8b 8d a8 fe ff
	ff		 mov	 ecx, DWORD PTR tv286[ebp]
  00231	89 8d e8 fe ff
	ff		 mov	 DWORD PTR $T6[ebp], ecx
  00237	e8 00 00 00 00	 call	 ?eof@?$_Narrow_char_traits@DH@std@@SAHXZ ; std::_Narrow_char_traits<char,int>::eof
  0023c	89 85 dc fe ff
	ff		 mov	 DWORD PTR $T5[ebp], eax
  00242	8d 95 e8 fe ff
	ff		 lea	 edx, DWORD PTR $T6[ebp]
  00248	52		 push	 edx
  00249	8d 85 dc fe ff
	ff		 lea	 eax, DWORD PTR $T5[ebp]
  0024f	50		 push	 eax
  00250	e8 00 00 00 00	 call	 ?eq_int_type@?$_Narrow_char_traits@DH@std@@SA_NABH0@Z ; std::_Narrow_char_traits<char,int>::eq_int_type
  00255	83 c4 08	 add	 esp, 8
  00258	0f b6 c8	 movzx	 ecx, al
  0025b	85 c9		 test	 ecx, ecx
  0025d	74 0b		 je	 SHORT $LN12@operator

; 754  :                     _State |= ios_base::badbit; // insertion failed, quit

  0025f	8b 45 e4	 mov	 eax, DWORD PTR __State$[ebp]
  00262	83 c8 04	 or	 eax, 4
  00265	89 45 e4	 mov	 DWORD PTR __State$[ebp], eax

; 755  :                     break;

  00268	eb 05		 jmp	 SHORT $LN11@operator
$LN12@operator:

; 756  :                 }
; 757  :             }

  0026a	e9 2d ff ff ff	 jmp	 $LN2@operator
$LN11@operator:

; 758  :         }
; 759  : 
; 760  :         if (_State == ios_base::goodbit && _Ostr.rdbuf()->sputn(_Val, _Count) != _Count) {

  0026f	83 7d e4 00	 cmp	 DWORD PTR __State$[ebp], 0
  00273	75 6e		 jne	 SHORT $LN13@operator
  00275	8b 45 08	 mov	 eax, DWORD PTR __Ostr$[ebp]
  00278	8b 08		 mov	 ecx, DWORD PTR [eax]
  0027a	8b 55 08	 mov	 edx, DWORD PTR __Ostr$[ebp]
  0027d	03 51 04	 add	 edx, DWORD PTR [ecx+4]
  00280	8b f4		 mov	 esi, esp
  00282	8b ca		 mov	 ecx, edx
  00284	ff 15 00 00 00
	00		 call	 DWORD PTR __imp_?rdbuf@?$basic_ios@DU?$char_traits@D@std@@@std@@QBEPAV?$basic_streambuf@DU?$char_traits@D@std@@@2@XZ
  0028a	3b f4		 cmp	 esi, esp
  0028c	e8 00 00 00 00	 call	 __RTC_CheckEsp
  00291	89 85 b0 fe ff
	ff		 mov	 DWORD PTR tv287[ebp], eax
  00297	8b f4		 mov	 esi, esp
  00299	8b 45 d8	 mov	 eax, DWORD PTR __Count$[ebp+4]
  0029c	50		 push	 eax
  0029d	8b 4d d4	 mov	 ecx, DWORD PTR __Count$[ebp]
  002a0	51		 push	 ecx
  002a1	8b 55 0c	 mov	 edx, DWORD PTR __Val$[ebp]
  002a4	52		 push	 edx
  002a5	8b 8d b0 fe ff
	ff		 mov	 ecx, DWORD PTR tv287[ebp]
  002ab	ff 15 00 00 00
	00		 call	 DWORD PTR __imp_?sputn@?$basic_streambuf@DU?$char_traits@D@std@@@std@@QAE_JPBD_J@Z
  002b1	3b f4		 cmp	 esi, esp
  002b3	e8 00 00 00 00	 call	 __RTC_CheckEsp
  002b8	89 85 a8 fe ff
	ff		 mov	 DWORD PTR tv288[ebp], eax
  002be	89 95 ac fe ff
	ff		 mov	 DWORD PTR tv288[ebp+4], edx
  002c4	8b 85 a8 fe ff
	ff		 mov	 eax, DWORD PTR tv288[ebp]
  002ca	3b 45 d4	 cmp	 eax, DWORD PTR __Count$[ebp]
  002cd	75 0b		 jne	 SHORT $LN27@operator
  002cf	8b 8d ac fe ff
	ff		 mov	 ecx, DWORD PTR tv288[ebp+4]
  002d5	3b 4d d8	 cmp	 ecx, DWORD PTR __Count$[ebp+4]
  002d8	74 09		 je	 SHORT $LN13@operator
$LN27@operator:

; 761  :             _State |= ios_base::badbit;

  002da	8b 45 e4	 mov	 eax, DWORD PTR __State$[ebp]
  002dd	83 c8 04	 or	 eax, 4
  002e0	89 45 e4	 mov	 DWORD PTR __State$[ebp], eax
$LN13@operator:

; 762  :         }
; 763  : 
; 764  :         if (_State == ios_base::goodbit) {

  002e3	83 7d e4 00	 cmp	 DWORD PTR __State$[ebp], 0
  002e7	0f 85 d5 00 00
	00		 jne	 $LN14@operator

; 765  :             for (; 0 < _Pad; --_Pad) { // pad on right

  002ed	eb 12		 jmp	 SHORT $LN7@operator
$LN5@operator:
  002ef	8b 45 c4	 mov	 eax, DWORD PTR __Pad$[ebp]
  002f2	83 e8 01	 sub	 eax, 1
  002f5	8b 4d c8	 mov	 ecx, DWORD PTR __Pad$[ebp+4]
  002f8	83 d9 00	 sbb	 ecx, 0
  002fb	89 45 c4	 mov	 DWORD PTR __Pad$[ebp], eax
  002fe	89 4d c8	 mov	 DWORD PTR __Pad$[ebp+4], ecx
$LN7@operator:
  00301	83 7d c8 00	 cmp	 DWORD PTR __Pad$[ebp+4], 0
  00305	0f 8c b7 00 00
	00		 jl	 $LN14@operator
  0030b	7f 0a		 jg	 SHORT $LN28@operator
  0030d	83 7d c4 00	 cmp	 DWORD PTR __Pad$[ebp], 0
  00311	0f 86 ab 00 00
	00		 jbe	 $LN14@operator
$LN28@operator:

; 766  :                 if (_Traits::eq_int_type(_Traits::eof(), _Ostr.rdbuf()->sputc(_Ostr.fill()))) {

  00317	8b 45 08	 mov	 eax, DWORD PTR __Ostr$[ebp]
  0031a	8b 08		 mov	 ecx, DWORD PTR [eax]
  0031c	8b 55 08	 mov	 edx, DWORD PTR __Ostr$[ebp]
  0031f	03 51 04	 add	 edx, DWORD PTR [ecx+4]
  00322	8b f4		 mov	 esi, esp
  00324	8b ca		 mov	 ecx, edx
  00326	ff 15 00 00 00
	00		 call	 DWORD PTR __imp_?fill@?$basic_ios@DU?$char_traits@D@std@@@std@@QBEDXZ
  0032c	3b f4		 cmp	 esi, esp
  0032e	e8 00 00 00 00	 call	 __RTC_CheckEsp
  00333	88 85 b3 fe ff
	ff		 mov	 BYTE PTR tv289[ebp], al
  00339	8b 45 08	 mov	 eax, DWORD PTR __Ostr$[ebp]
  0033c	8b 08		 mov	 ecx, DWORD PTR [eax]
  0033e	8b 55 08	 mov	 edx, DWORD PTR __Ostr$[ebp]
  00341	03 51 04	 add	 edx, DWORD PTR [ecx+4]
  00344	8b f4		 mov	 esi, esp
  00346	8b ca		 mov	 ecx, edx
  00348	ff 15 00 00 00
	00		 call	 DWORD PTR __imp_?rdbuf@?$basic_ios@DU?$char_traits@D@std@@@std@@QBEPAV?$basic_streambuf@DU?$char_traits@D@std@@@2@XZ
  0034e	3b f4		 cmp	 esi, esp
  00350	e8 00 00 00 00	 call	 __RTC_CheckEsp
  00355	89 85 ac fe ff
	ff		 mov	 DWORD PTR tv290[ebp], eax
  0035b	8b f4		 mov	 esi, esp
  0035d	0f b6 85 b3 fe
	ff ff		 movzx	 eax, BYTE PTR tv289[ebp]
  00364	50		 push	 eax
  00365	8b 8d ac fe ff
	ff		 mov	 ecx, DWORD PTR tv290[ebp]
  0036b	ff 15 00 00 00
	00		 call	 DWORD PTR __imp_?sputc@?$basic_streambuf@DU?$char_traits@D@std@@@std@@QAEHD@Z
  00371	3b f4		 cmp	 esi, esp
  00373	e8 00 00 00 00	 call	 __RTC_CheckEsp
  00378	89 85 a8 fe ff
	ff		 mov	 DWORD PTR tv291[ebp], eax
  0037e	8b 8d a8 fe ff
	ff		 mov	 ecx, DWORD PTR tv291[ebp]
  00384	89 8d d0 fe ff
	ff		 mov	 DWORD PTR $T4[ebp], ecx
  0038a	e8 00 00 00 00	 call	 ?eof@?$_Narrow_char_traits@DH@std@@SAHXZ ; std::_Narrow_char_traits<char,int>::eof
  0038f	89 85 c4 fe ff
	ff		 mov	 DWORD PTR $T3[ebp], eax
  00395	8d 95 d0 fe ff
	ff		 lea	 edx, DWORD PTR $T4[ebp]
  0039b	52		 push	 edx
  0039c	8d 85 c4 fe ff
	ff		 lea	 eax, DWORD PTR $T3[ebp]
  003a2	50		 push	 eax
  003a3	e8 00 00 00 00	 call	 ?eq_int_type@?$_Narrow_char_traits@DH@std@@SA_NABH0@Z ; std::_Narrow_char_traits<char,int>::eq_int_type
  003a8	83 c4 08	 add	 esp, 8
  003ab	0f b6 c8	 movzx	 ecx, al
  003ae	85 c9		 test	 ecx, ecx
  003b0	74 0b		 je	 SHORT $LN15@operator

; 767  :                     _State |= ios_base::badbit; // insertion failed, quit

  003b2	8b 45 e4	 mov	 eax, DWORD PTR __State$[ebp]
  003b5	83 c8 04	 or	 eax, 4
  003b8	89 45 e4	 mov	 DWORD PTR __State$[ebp], eax

; 768  :                     break;

  003bb	eb 05		 jmp	 SHORT $LN14@operator
$LN15@operator:

; 769  :                 }
; 770  :             }

  003bd	e9 2d ff ff ff	 jmp	 $LN5@operator
$LN14@operator:

; 771  :         }
; 772  : 
; 773  :         _Ostr.width(0);

  003c2	8b f4		 mov	 esi, esp
  003c4	6a 00		 push	 0
  003c6	6a 00		 push	 0
  003c8	8b 45 08	 mov	 eax, DWORD PTR __Ostr$[ebp]
  003cb	8b 08		 mov	 ecx, DWORD PTR [eax]
  003cd	8b 55 08	 mov	 edx, DWORD PTR __Ostr$[ebp]
  003d0	03 51 04	 add	 edx, DWORD PTR [ecx+4]
  003d3	8b ca		 mov	 ecx, edx
  003d5	ff 15 00 00 00
	00		 call	 DWORD PTR __imp_?width@ios_base@std@@QAE_J_J@Z
  003db	3b f4		 cmp	 esi, esp
  003dd	e8 00 00 00 00	 call	 __RTC_CheckEsp
  003e2	eb 26		 jmp	 SHORT $LN19@operator
__catch$??$?6U?$char_traits@D@std@@@std@@YAAAV?$basic_ostream@DU?$char_traits@D@std@@@0@AAV10@PBD@Z$0:

; 774  :         _CATCH_IO_(ios_base, _Ostr)

  003e4	8b f4		 mov	 esi, esp
  003e6	6a 01		 push	 1
  003e8	6a 04		 push	 4
  003ea	8b 45 08	 mov	 eax, DWORD PTR __Ostr$[ebp]
  003ed	8b 08		 mov	 ecx, DWORD PTR [eax]
  003ef	8b 55 08	 mov	 edx, DWORD PTR __Ostr$[ebp]
  003f2	03 51 04	 add	 edx, DWORD PTR [ecx+4]
  003f5	8b ca		 mov	 ecx, edx
  003f7	ff 15 00 00 00
	00		 call	 DWORD PTR __imp_?setstate@?$basic_ios@DU?$char_traits@D@std@@@std@@QAEXH_N@Z
  003fd	3b f4		 cmp	 esi, esp
  003ff	e8 00 00 00 00	 call	 __RTC_CheckEsp
  00404	b8 00 00 00 00	 mov	 eax, $LN23@operator
  00409	c3		 ret	 0
$LN19@operator:
  0040a	c7 45 fc 00 00
	00 00		 mov	 DWORD PTR __$EHRec$[ebp+12], 0
  00411	eb 07		 jmp	 SHORT $LN9@operator
$LN23@operator:
  00413	c7 45 fc 00 00
	00 00		 mov	 DWORD PTR __$EHRec$[ebp+12], 0
$LN9@operator:

; 775  :     }
; 776  : 
; 777  :     _Ostr.setstate(_State);

  0041a	8b f4		 mov	 esi, esp
  0041c	6a 00		 push	 0
  0041e	8b 45 e4	 mov	 eax, DWORD PTR __State$[ebp]
  00421	50		 push	 eax
  00422	8b 4d 08	 mov	 ecx, DWORD PTR __Ostr$[ebp]
  00425	8b 11		 mov	 edx, DWORD PTR [ecx]
  00427	8b 4d 08	 mov	 ecx, DWORD PTR __Ostr$[ebp]
  0042a	03 4a 04	 add	 ecx, DWORD PTR [edx+4]
  0042d	ff 15 00 00 00
	00		 call	 DWORD PTR __imp_?setstate@?$basic_ios@DU?$char_traits@D@std@@@std@@QAEXH_N@Z
  00433	3b f4		 cmp	 esi, esp
  00435	e8 00 00 00 00	 call	 __RTC_CheckEsp

; 778  :     return _Ostr;

  0043a	8b 45 08	 mov	 eax, DWORD PTR __Ostr$[ebp]
  0043d	89 85 b8 fe ff
	ff		 mov	 DWORD PTR $T2[ebp], eax
  00443	c7 45 fc ff ff
	ff ff		 mov	 DWORD PTR __$EHRec$[ebp+12], -1
  0044a	8d 4d b4	 lea	 ecx, DWORD PTR __Ok$[ebp]
  0044d	e8 00 00 00 00	 call	 ??1sentry@?$basic_ostream@DU?$char_traits@D@std@@@std@@QAE@XZ ; std::basic_ostream<char,std::char_traits<char> >::sentry::~sentry
  00452	8b 85 b8 fe ff
	ff		 mov	 eax, DWORD PTR $T2[ebp]

; 779  : }

  00458	52		 push	 edx
  00459	8b cd		 mov	 ecx, ebp
  0045b	50		 push	 eax
  0045c	8d 15 00 00 00
	00		 lea	 edx, DWORD PTR $LN32@operator
  00462	e8 00 00 00 00	 call	 @_RTC_CheckStackVars@8
  00467	58		 pop	 eax
  00468	5a		 pop	 edx
  00469	8b 4d f4	 mov	 ecx, DWORD PTR __$EHRec$[ebp+4]
  0046c	64 89 0d 00 00
	00 00		 mov	 DWORD PTR fs:0, ecx
  00473	59		 pop	 ecx
  00474	5f		 pop	 edi
  00475	5e		 pop	 esi
  00476	5b		 pop	 ebx
  00477	8b 4d ec	 mov	 ecx, DWORD PTR __$ArrayPad$[ebp]
  0047a	33 cd		 xor	 ecx, ebp
  0047c	e8 00 00 00 00	 call	 @__security_check_cookie@4
  00481	81 c4 64 01 00
	00		 add	 esp, 356		; 00000164H
  00487	3b ec		 cmp	 ebp, esp
  00489	e8 00 00 00 00	 call	 __RTC_CheckEsp
  0048e	8b e5		 mov	 esp, ebp
  00490	5d		 pop	 ebp
  00491	c3		 ret	 0
  00492	66 90		 npad	 2
$LN32@operator:
  00494	01 00 00 00	 DD	 1
  00498	00 00 00 00	 DD	 $LN31@operator
$LN31@operator:
  0049c	b4 ff ff ff	 DD	 -76			; ffffffb4H
  004a0	08 00 00 00	 DD	 8
  004a4	00 00 00 00	 DD	 $LN29@operator
$LN29@operator:
  004a8	5f		 DB	 95			; 0000005fH
  004a9	4f		 DB	 79			; 0000004fH
  004aa	6b		 DB	 107			; 0000006bH
  004ab	00		 DB	 0
_TEXT	ENDS
;	COMDAT text$x
text$x	SEGMENT
__unwindfunclet$??$?6U?$char_traits@D@std@@@std@@YAAAV?$basic_ostream@DU?$char_traits@D@std@@@0@AAV10@PBD@Z$2:
  00000	8d 4d b4	 lea	 ecx, DWORD PTR __Ok$[ebp]
  00003	e9 00 00 00 00	 jmp	 ??1sentry@?$basic_ostream@DU?$char_traits@D@std@@@std@@QAE@XZ ; std::basic_ostream<char,std::char_traits<char> >::sentry::~sentry
__ehhandler$??$?6U?$char_traits@D@std@@@std@@YAAAV?$basic_ostream@DU?$char_traits@D@std@@@0@AAV10@PBD@Z:
  00008	8b 54 24 08	 mov	 edx, DWORD PTR [esp+8]
  0000c	8d 42 0c	 lea	 eax, DWORD PTR [edx+12]
  0000f	8b 8a 98 fe ff
	ff		 mov	 ecx, DWORD PTR [edx-360]
  00015	33 c8		 xor	 ecx, eax
  00017	e8 00 00 00 00	 call	 @__security_check_cookie@4
  0001c	8b 4a f8	 mov	 ecx, DWORD PTR [edx-8]
  0001f	33 c8		 xor	 ecx, eax
  00021	e8 00 00 00 00	 call	 @__security_check_cookie@4
  00026	b8 00 00 00 00	 mov	 eax, OFFSET __ehfuncinfo$??$?6U?$char_traits@D@std@@@std@@YAAAV?$basic_ostream@DU?$char_traits@D@std@@@0@AAV10@PBD@Z
  0002b	e9 00 00 00 00	 jmp	 ___CxxFrameHandler3
text$x	ENDS
??$?6U?$char_traits@D@std@@@std@@YAAAV?$basic_ostream@DU?$char_traits@D@std@@@0@AAV10@PBD@Z ENDP ; std::operator<<<std::char_traits<char> >
; Function compile flags: /Odtp /RTCsu /ZI
; File C:\Program Files (x86)\Microsoft Visual Studio\2019\Community\VC\Tools\MSVC\14.23.28105\include\xstring
;	COMDAT ??$?6DU?$char_traits@D@std@@V?$allocator@D@1@@std@@YAAAV?$basic_ostream@DU?$char_traits@D@std@@@0@AAV10@ABV?$basic_string@DU?$char_traits@D@std@@V?$allocator@D@2@@0@@Z
_TEXT	SEGMENT
__Ostr$ = 8						; size = 4
__Str$ = 12						; size = 4
??$?6DU?$char_traits@D@std@@V?$allocator@D@1@@std@@YAAAV?$basic_ostream@DU?$char_traits@D@std@@@0@AAV10@ABV?$basic_string@DU?$char_traits@D@std@@V?$allocator@D@2@@0@@Z PROC ; std::operator<<<char,std::char_traits<char>,std::allocator<char> >, COMDAT

; 4518 :     basic_ostream<_Elem, _Traits>& _Ostr, const basic_string<_Elem, _Traits, _Alloc>& _Str) { // insert a string

  00000	55		 push	 ebp
  00001	8b ec		 mov	 ebp, esp
  00003	81 ec c0 00 00
	00		 sub	 esp, 192		; 000000c0H
  00009	53		 push	 ebx
  0000a	56		 push	 esi
  0000b	57		 push	 edi
  0000c	8d bd 40 ff ff
	ff		 lea	 edi, DWORD PTR [ebp-192]
  00012	b9 30 00 00 00	 mov	 ecx, 48			; 00000030H
  00017	b8 cc cc cc cc	 mov	 eax, -858993460		; ccccccccH
  0001c	f3 ab		 rep stosd
  0001e	b9 00 00 00 00	 mov	 ecx, OFFSET __AF9D3FD8_xstring
  00023	e8 00 00 00 00	 call	 @__CheckForDebuggerJustMyCode@4

; 4519 :     return _Insert_string(_Ostr, _Str.data(), _Str.size());

  00028	8b 4d 0c	 mov	 ecx, DWORD PTR __Str$[ebp]
  0002b	e8 00 00 00 00	 call	 ?size@?$basic_string@DU?$char_traits@D@std@@V?$allocator@D@2@@std@@QBEIXZ ; std::basic_string<char,std::char_traits<char>,std::allocator<char> >::size
  00030	50		 push	 eax
  00031	8b 4d 0c	 mov	 ecx, DWORD PTR __Str$[ebp]
  00034	e8 00 00 00 00	 call	 ?data@?$basic_string@DU?$char_traits@D@std@@V?$allocator@D@2@@std@@QBEPBDXZ ; std::basic_string<char,std::char_traits<char>,std::allocator<char> >::data
  00039	50		 push	 eax
  0003a	8b 45 08	 mov	 eax, DWORD PTR __Ostr$[ebp]
  0003d	50		 push	 eax
  0003e	e8 00 00 00 00	 call	 ??$_Insert_string@DU?$char_traits@D@std@@I@std@@YAAAV?$basic_ostream@DU?$char_traits@D@std@@@0@AAV10@QBDI@Z ; std::_Insert_string<char,std::char_traits<char>,unsigned int>
  00043	83 c4 0c	 add	 esp, 12			; 0000000cH

; 4520 : }

  00046	5f		 pop	 edi
  00047	5e		 pop	 esi
  00048	5b		 pop	 ebx
  00049	81 c4 c0 00 00
	00		 add	 esp, 192		; 000000c0H
  0004f	3b ec		 cmp	 ebp, esp
  00051	e8 00 00 00 00	 call	 __RTC_CheckEsp
  00056	8b e5		 mov	 esp, ebp
  00058	5d		 pop	 ebp
  00059	c3		 ret	 0
??$?6DU?$char_traits@D@std@@V?$allocator@D@1@@std@@YAAAV?$basic_ostream@DU?$char_traits@D@std@@@0@AAV10@ABV?$basic_string@DU?$char_traits@D@std@@V?$allocator@D@2@@0@@Z ENDP ; std::operator<<<char,std::char_traits<char>,std::allocator<char> >
_TEXT	ENDS
; Function compile flags: /Odtp /RTCsu /ZI
; File C:\Program Files (x86)\Microsoft Visual Studio\2019\Community\VC\Tools\MSVC\14.23.28105\include\xstring
;	COMDAT ??$?HDU?$char_traits@D@std@@V?$allocator@D@1@@std@@YA?AV?$basic_string@DU?$char_traits@D@std@@V?$allocator@D@2@@0@$$QAV10@ABV10@@Z
_TEXT	SEGMENT
$T1 = -200						; size = 4
___$ReturnUdt$ = 8					; size = 4
__Left$ = 12						; size = 4
__Right$ = 16						; size = 4
??$?HDU?$char_traits@D@std@@V?$allocator@D@1@@std@@YA?AV?$basic_string@DU?$char_traits@D@std@@V?$allocator@D@2@@0@$$QAV10@ABV10@@Z PROC ; std::operator+<char,std::char_traits<char>,std::allocator<char> >, COMDAT

; 4293 :     const basic_string<_Elem, _Traits, _Alloc>& _Right) { // return string + string

  00000	55		 push	 ebp
  00001	8b ec		 mov	 ebp, esp
  00003	81 ec cc 00 00
	00		 sub	 esp, 204		; 000000ccH
  00009	53		 push	 ebx
  0000a	56		 push	 esi
  0000b	57		 push	 edi
  0000c	8d bd 34 ff ff
	ff		 lea	 edi, DWORD PTR [ebp-204]
  00012	b9 33 00 00 00	 mov	 ecx, 51			; 00000033H
  00017	b8 cc cc cc cc	 mov	 eax, -858993460		; ccccccccH
  0001c	f3 ab		 rep stosd
  0001e	c7 85 38 ff ff
	ff 00 00 00 00	 mov	 DWORD PTR $T1[ebp], 0
  00028	b9 00 00 00 00	 mov	 ecx, OFFSET __AF9D3FD8_xstring
  0002d	e8 00 00 00 00	 call	 @__CheckForDebuggerJustMyCode@4

; 4294 :     return _STD move(_Left.append(_Right));

  00032	8b 45 10	 mov	 eax, DWORD PTR __Right$[ebp]
  00035	50		 push	 eax
  00036	8b 4d 0c	 mov	 ecx, DWORD PTR __Left$[ebp]
  00039	e8 00 00 00 00	 call	 ?append@?$basic_string@DU?$char_traits@D@std@@V?$allocator@D@2@@std@@QAEAAV12@ABV12@@Z ; std::basic_string<char,std::char_traits<char>,std::allocator<char> >::append
  0003e	50		 push	 eax
  0003f	e8 00 00 00 00	 call	 ??$move@AAV?$basic_string@DU?$char_traits@D@std@@V?$allocator@D@2@@std@@@std@@YA$$QAV?$basic_string@DU?$char_traits@D@std@@V?$allocator@D@2@@0@AAV10@@Z ; std::move<std::basic_string<char,std::char_traits<char>,std::allocator<char> > &>
  00044	83 c4 04	 add	 esp, 4
  00047	50		 push	 eax
  00048	8b 4d 08	 mov	 ecx, DWORD PTR ___$ReturnUdt$[ebp]
  0004b	e8 00 00 00 00	 call	 ??0?$basic_string@DU?$char_traits@D@std@@V?$allocator@D@2@@std@@QAE@$$QAV01@@Z ; std::basic_string<char,std::char_traits<char>,std::allocator<char> >::basic_string<char,std::char_traits<char>,std::allocator<char> >
  00050	8b 8d 38 ff ff
	ff		 mov	 ecx, DWORD PTR $T1[ebp]
  00056	83 c9 01	 or	 ecx, 1
  00059	89 8d 38 ff ff
	ff		 mov	 DWORD PTR $T1[ebp], ecx
  0005f	8b 45 08	 mov	 eax, DWORD PTR ___$ReturnUdt$[ebp]

; 4295 : }

  00062	5f		 pop	 edi
  00063	5e		 pop	 esi
  00064	5b		 pop	 ebx
  00065	81 c4 cc 00 00
	00		 add	 esp, 204		; 000000ccH
  0006b	3b ec		 cmp	 ebp, esp
  0006d	e8 00 00 00 00	 call	 __RTC_CheckEsp
  00072	8b e5		 mov	 esp, ebp
  00074	5d		 pop	 ebp
  00075	c3		 ret	 0
??$?HDU?$char_traits@D@std@@V?$allocator@D@1@@std@@YA?AV?$basic_string@DU?$char_traits@D@std@@V?$allocator@D@2@@0@$$QAV10@ABV10@@Z ENDP ; std::operator+<char,std::char_traits<char>,std::allocator<char> >
_TEXT	ENDS
; Function compile flags: /Odtp /RTCsu /ZI
; File C:\Program Files (x86)\Microsoft Visual Studio\2019\Community\VC\Tools\MSVC\14.23.28105\include\xstring
;	COMDAT ??$?HDU?$char_traits@D@std@@V?$allocator@D@1@@std@@YA?AV?$basic_string@DU?$char_traits@D@std@@V?$allocator@D@2@@0@ABV10@QBD@Z
_TEXT	SEGMENT
$T2 = -252						; size = 4
__Ans$ = -48						; size = 28
__$ArrayPad$ = -16					; size = 4
__$EHRec$ = -12						; size = 12
___$ReturnUdt$ = 8					; size = 4
__Left$ = 12						; size = 4
__Right$ = 16						; size = 4
??$?HDU?$char_traits@D@std@@V?$allocator@D@1@@std@@YA?AV?$basic_string@DU?$char_traits@D@std@@V?$allocator@D@2@@0@ABV10@QBD@Z PROC ; std::operator+<char,std::char_traits<char>,std::allocator<char> >, COMDAT

; 4265 :     _In_z_ const _Elem* const _Right) { // return string + NTCTS

  00000	55		 push	 ebp
  00001	8b ec		 mov	 ebp, esp
  00003	6a ff		 push	 -1
  00005	68 00 00 00 00	 push	 __ehhandler$??$?HDU?$char_traits@D@std@@V?$allocator@D@1@@std@@YA?AV?$basic_string@DU?$char_traits@D@std@@V?$allocator@D@2@@0@ABV10@QBD@Z
  0000a	64 a1 00 00 00
	00		 mov	 eax, DWORD PTR fs:0
  00010	50		 push	 eax
  00011	81 ec f4 00 00
	00		 sub	 esp, 244		; 000000f4H
  00017	53		 push	 ebx
  00018	56		 push	 esi
  00019	57		 push	 edi
  0001a	8d bd 00 ff ff
	ff		 lea	 edi, DWORD PTR [ebp-256]
  00020	b9 3d 00 00 00	 mov	 ecx, 61			; 0000003dH
  00025	b8 cc cc cc cc	 mov	 eax, -858993460		; ccccccccH
  0002a	f3 ab		 rep stosd
  0002c	a1 00 00 00 00	 mov	 eax, DWORD PTR ___security_cookie
  00031	33 c5		 xor	 eax, ebp
  00033	89 45 f0	 mov	 DWORD PTR __$ArrayPad$[ebp], eax
  00036	50		 push	 eax
  00037	8d 45 f4	 lea	 eax, DWORD PTR __$EHRec$[ebp]
  0003a	64 a3 00 00 00
	00		 mov	 DWORD PTR fs:0, eax
  00040	c7 85 04 ff ff
	ff 00 00 00 00	 mov	 DWORD PTR $T2[ebp], 0
  0004a	b9 00 00 00 00	 mov	 ecx, OFFSET __AF9D3FD8_xstring
  0004f	e8 00 00 00 00	 call	 @__CheckForDebuggerJustMyCode@4

; 4266 :     using _String_type = basic_string<_Elem, _Traits, _Alloc>;
; 4267 :     using _Size_type   = typename _String_type::size_type;
; 4268 :     _String_type _Ans;

  00054	8d 4d d0	 lea	 ecx, DWORD PTR __Ans$[ebp]
  00057	e8 00 00 00 00	 call	 ??0?$basic_string@DU?$char_traits@D@std@@V?$allocator@D@2@@std@@QAE@XZ ; std::basic_string<char,std::char_traits<char>,std::allocator<char> >::basic_string<char,std::char_traits<char>,std::allocator<char> >
  0005c	c7 45 fc 00 00
	00 00		 mov	 DWORD PTR __$EHRec$[ebp+8], 0

; 4269 :     _Ans.reserve(_Convert_size<_Size_type>(_Left.size() + _Traits::length(_Right)));

  00063	8b 4d 0c	 mov	 ecx, DWORD PTR __Left$[ebp]
  00066	e8 00 00 00 00	 call	 ?size@?$basic_string@DU?$char_traits@D@std@@V?$allocator@D@2@@std@@QBEIXZ ; std::basic_string<char,std::char_traits<char>,std::allocator<char> >::size
  0006b	8b f0		 mov	 esi, eax
  0006d	8b 45 10	 mov	 eax, DWORD PTR __Right$[ebp]
  00070	50		 push	 eax
  00071	e8 00 00 00 00	 call	 ?length@?$_Narrow_char_traits@DH@std@@SAIQBD@Z ; std::_Narrow_char_traits<char,int>::length
  00076	83 c4 04	 add	 esp, 4
  00079	03 f0		 add	 esi, eax
  0007b	56		 push	 esi
  0007c	e8 00 00 00 00	 call	 ??$_Convert_size@I@std@@YAII@Z ; std::_Convert_size<unsigned int>
  00081	83 c4 04	 add	 esp, 4
  00084	50		 push	 eax
  00085	8d 4d d0	 lea	 ecx, DWORD PTR __Ans$[ebp]
  00088	e8 00 00 00 00	 call	 ?reserve@?$basic_string@DU?$char_traits@D@std@@V?$allocator@D@2@@std@@QAEXI@Z ; std::basic_string<char,std::char_traits<char>,std::allocator<char> >::reserve

; 4270 :     _Ans += _Left;

  0008d	8b 45 0c	 mov	 eax, DWORD PTR __Left$[ebp]
  00090	50		 push	 eax
  00091	8d 4d d0	 lea	 ecx, DWORD PTR __Ans$[ebp]
  00094	e8 00 00 00 00	 call	 ??Y?$basic_string@DU?$char_traits@D@std@@V?$allocator@D@2@@std@@QAEAAV01@ABV01@@Z ; std::basic_string<char,std::char_traits<char>,std::allocator<char> >::operator+=

; 4271 :     _Ans += _Right;

  00099	8b 45 10	 mov	 eax, DWORD PTR __Right$[ebp]
  0009c	50		 push	 eax
  0009d	8d 4d d0	 lea	 ecx, DWORD PTR __Ans$[ebp]
  000a0	e8 00 00 00 00	 call	 ??Y?$basic_string@DU?$char_traits@D@std@@V?$allocator@D@2@@std@@QAEAAV01@QBD@Z ; std::basic_string<char,std::char_traits<char>,std::allocator<char> >::operator+=

; 4272 :     return _Ans;

  000a5	8d 45 d0	 lea	 eax, DWORD PTR __Ans$[ebp]
  000a8	50		 push	 eax
  000a9	8b 4d 08	 mov	 ecx, DWORD PTR ___$ReturnUdt$[ebp]
  000ac	e8 00 00 00 00	 call	 ??0?$basic_string@DU?$char_traits@D@std@@V?$allocator@D@2@@std@@QAE@$$QAV01@@Z ; std::basic_string<char,std::char_traits<char>,std::allocator<char> >::basic_string<char,std::char_traits<char>,std::allocator<char> >
  000b1	8b 8d 04 ff ff
	ff		 mov	 ecx, DWORD PTR $T2[ebp]
  000b7	83 c9 01	 or	 ecx, 1
  000ba	89 8d 04 ff ff
	ff		 mov	 DWORD PTR $T2[ebp], ecx
  000c0	c7 45 fc ff ff
	ff ff		 mov	 DWORD PTR __$EHRec$[ebp+8], -1
  000c7	8d 4d d0	 lea	 ecx, DWORD PTR __Ans$[ebp]
